EXPORTS
??0AbstractHash@LIEF@@QEAA@AEBV01@@Z
??0AbstractHash@LIEF@@QEAA@XZ
??0AbstractHash@LIEF@@QEAA@_K@Z
??0AndroidNote@ELF@LIEF@@AEAA@AEAVNote@12@@Z
??0AndroidNote@ELF@LIEF@@QEAA@AEBV012@@Z
??0Attribute@PE@LIEF@@IEAA@W4SIG_ATTRIBUTE_TYPES@12@@Z
??0Attribute@PE@LIEF@@QEAA@AEBV012@@Z
??0Attribute@PE@LIEF@@QEAA@XZ
??0Binary@ELF@LIEF@@IEAA@XZ
??0Binary@LIEF@@QEAA@AEBV01@@Z
??0Binary@LIEF@@QEAA@XZ
??0Binary@MachO@LIEF@@AEAA@XZ
??0Binary@OAT@LIEF@@AEAA@XZ
??0Binary@PE@LIEF@@AEAA@XZ
??0Binary@PE@LIEF@@QEAA@AEBV?$basic_string@DU?$char_traits@D@std@@V?$allocator@D@2@@std@@W4PE_TYPE@12@@Z
??0BinaryParser@MachO@LIEF@@AEAA@XZ
??0BindingInfo@MachO@LIEF@@QEAA@AEBV012@@Z
??0BindingInfo@MachO@LIEF@@QEAA@W4BINDING_CLASS@12@W4BIND_TYPES@12@_K_JH_N42@Z
??0BindingInfo@MachO@LIEF@@QEAA@XZ
??0BuildToolVersion@MachO@LIEF@@QEAA@AEBUbuild_tool_version@details@12@@Z
??0BuildToolVersion@MachO@LIEF@@QEAA@AEBV012@@Z
??0BuildToolVersion@MachO@LIEF@@QEAA@XZ
??0BuildVersion@MachO@LIEF@@QEAA@AEBUbuild_version_command@details@12@@Z
??0BuildVersion@MachO@LIEF@@QEAA@AEBV012@@Z
??0BuildVersion@MachO@LIEF@@QEAA@XZ
??0Builder@ELF@LIEF@@QEAA@AEAVBinary@12@@Z
??0Builder@MachO@LIEF@@QEAA@AEAVBinary@12@@Z
??0Builder@MachO@LIEF@@QEAA@AEAVFatBinary@12@@Z
??0Builder@MachO@LIEF@@QEAA@AEBV012@@Z
??0Builder@MachO@LIEF@@QEAA@V?$vector@PEAVBinary@MachO@LIEF@@V?$allocator@PEAVBinary@MachO@LIEF@@@std@@@std@@@Z
??0Builder@PE@LIEF@@QEAA@AEAVBinary@12@@Z
??0Builder@PE@LIEF@@QEAA@AEBV012@@Z
??0Class@DEX@LIEF@@QEAA@V?$basic_string@DU?$char_traits@D@std@@V?$allocator@D@2@@std@@IPEAV012@0@Z
??0Class@DEX@LIEF@@QEAA@XZ
??0Class@OAT@LIEF@@QEAA@AEBV012@@Z
??0Class@OAT@LIEF@@QEAA@W4OAT_CLASS_STATUS@12@W4OAT_CLASS_TYPES@12@PEAV0DEX@2@V?$vector@IV?$allocator@I@std@@@std@@@Z
??0Class@OAT@LIEF@@QEAA@XZ
??0CodeInfo@DEX@LIEF@@QEAA@AEBUcode_item@details@12@@Z
??0CodeInfo@DEX@LIEF@@QEAA@AEBV012@@Z
??0CodeInfo@DEX@LIEF@@QEAA@XZ
??0CodeIntegrity@PE@LIEF@@QEAA@AEBUpe_code_integrity@details@12@@Z
??0CodeIntegrity@PE@LIEF@@QEAA@AEBV012@@Z
??0CodeIntegrity@PE@LIEF@@QEAA@XZ
??0CodeSignature@MachO@LIEF@@QEAA@AEBUlinkedit_data_command@details@12@@Z
??0CodeSignature@MachO@LIEF@@QEAA@AEBV012@@Z
??0CodeSignature@MachO@LIEF@@QEAA@XZ
??0CodeView@PE@LIEF@@QEAA@AEBV012@@Z
??0CodeView@PE@LIEF@@QEAA@W4CODE_VIEW_SIGNATURES@12@@Z
??0CodeView@PE@LIEF@@QEAA@XZ
??0CodeViewPDB@PE@LIEF@@QEAA@AEBV012@@Z
??0CodeViewPDB@PE@LIEF@@QEAA@W4CODE_VIEW_SIGNATURES@12@V?$array@E$0BA@@std@@IV?$basic_string@DU?$char_traits@D@std@@V?$allocator@D@2@@5@@Z
??0CodeViewPDB@PE@LIEF@@QEAA@XZ
??0ContentInfo@PE@LIEF@@QEAA@AEBV012@@Z
??0ContentInfo@PE@LIEF@@QEAA@XZ
??0ContentType@PE@LIEF@@QEAA@AEBV012@@Z
??0ContentType@PE@LIEF@@QEAA@V?$basic_string@DU?$char_traits@D@std@@V?$allocator@D@2@@std@@@Z
??0ContentType@PE@LIEF@@QEAA@XZ
??0CoreAuxv@ELF@LIEF@@AEAA@AEAVNote@12@@Z
??0CoreAuxv@ELF@LIEF@@QEAA@AEBV012@@Z
??0CoreFile@ELF@LIEF@@AEAA@AEAVNote@12@@Z
??0CoreFile@ELF@LIEF@@QEAA@AEBV012@@Z
??0CorePrPsInfo@ELF@LIEF@@AEAA@AEAVNote@12@@Z
??0CorePrPsInfo@ELF@LIEF@@QEAA@AEBV012@@Z
??0CorePrStatus@ELF@LIEF@@AEAA@AEAVNote@12@@Z
??0CorePrStatus@ELF@LIEF@@QEAA@AEBV012@@Z
??0CoreSigInfo@ELF@LIEF@@AEAA@AEAVNote@12@@Z
??0CoreSigInfo@ELF@LIEF@@QEAA@AEBV012@@Z
??0DataCodeEntry@MachO@LIEF@@QEAA@AEBUdata_in_code_entry@details@12@@Z
??0DataCodeEntry@MachO@LIEF@@QEAA@AEBV012@@Z
??0DataCodeEntry@MachO@LIEF@@QEAA@IGW4TYPES@012@@Z
??0DataCodeEntry@MachO@LIEF@@QEAA@XZ
??0DataDirectory@PE@LIEF@@QEAA@AEBUpe_data_directory@details@12@W4DATA_DIRECTORY@12@@Z
??0DataDirectory@PE@LIEF@@QEAA@AEBV012@@Z
??0DataDirectory@PE@LIEF@@QEAA@W4DATA_DIRECTORY@12@@Z
??0DataDirectory@PE@LIEF@@QEAA@XZ
??0DataInCode@MachO@LIEF@@QEAA@AEBUlinkedit_data_command@details@12@@Z
??0DataInCode@MachO@LIEF@@QEAA@AEBV012@@Z
??0DataInCode@MachO@LIEF@@QEAA@XZ
??0Debug@PE@LIEF@@QEAA@AEBUpe_debug@details@12@@Z
??0Debug@PE@LIEF@@QEAA@AEBV012@@Z
??0Debug@PE@LIEF@@QEAA@XZ
??0DelayImport@PE@LIEF@@QEAA@$$QEAV012@@Z
??0DelayImport@PE@LIEF@@QEAA@AEBUdelay_imports@details@12@W4PE_TYPE@12@@Z
??0DelayImport@PE@LIEF@@QEAA@AEBV012@@Z
??0DelayImport@PE@LIEF@@QEAA@V?$basic_string@DU?$char_traits@D@std@@V?$allocator@D@2@@std@@@Z
??0DelayImport@PE@LIEF@@QEAA@XZ
??0DelayImportEntry@PE@LIEF@@QEAA@$$QEAV012@@Z
??0DelayImportEntry@PE@LIEF@@QEAA@AEBV012@@Z
??0DelayImportEntry@PE@LIEF@@QEAA@XZ
??0DelayImportEntry@PE@LIEF@@QEAA@_KW4PE_TYPE@12@@Z
??0DexFile@OAT@LIEF@@QEAA@AEBV012@@Z
??0DexFile@OAT@LIEF@@QEAA@XZ
??0DosHeader@PE@LIEF@@QEAA@AEBUpe_dos_header@details@12@@Z
??0DosHeader@PE@LIEF@@QEAA@AEBV012@@Z
??0DosHeader@PE@LIEF@@QEAA@XZ
??0DyldEnvironment@MachO@LIEF@@QEAA@AEBUdylinker_command@details@12@@Z
??0DyldEnvironment@MachO@LIEF@@QEAA@AEBV012@@Z
??0DyldEnvironment@MachO@LIEF@@QEAA@XZ
??0DyldInfo@MachO@LIEF@@QEAA@AEBUdyld_info_command@details@12@@Z
??0DyldInfo@MachO@LIEF@@QEAA@AEBV012@@Z
??0DyldInfo@MachO@LIEF@@QEAA@XZ
??0DylibCommand@MachO@LIEF@@QEAA@AEBUdylib_command@details@12@@Z
??0DylibCommand@MachO@LIEF@@QEAA@AEBV012@@Z
??0DylibCommand@MachO@LIEF@@QEAA@XZ
??0DylinkerCommand@MachO@LIEF@@QEAA@AEBUdylinker_command@details@12@@Z
??0DylinkerCommand@MachO@LIEF@@QEAA@AEBV012@@Z
??0DylinkerCommand@MachO@LIEF@@QEAA@XZ
??0DynamicEntry@ELF@LIEF@@QEAA@AEBUElf32_Dyn@details@12@@Z
??0DynamicEntry@ELF@LIEF@@QEAA@AEBUElf64_Dyn@details@12@@Z
??0DynamicEntry@ELF@LIEF@@QEAA@AEBV012@@Z
??0DynamicEntry@ELF@LIEF@@QEAA@W4DYNAMIC_TAGS@12@_K@Z
??0DynamicEntry@ELF@LIEF@@QEAA@XZ
??0DynamicEntryArray@ELF@LIEF@@QEAA@AEBUElf32_Dyn@details@12@@Z
??0DynamicEntryArray@ELF@LIEF@@QEAA@AEBUElf64_Dyn@details@12@@Z
??0DynamicEntryArray@ELF@LIEF@@QEAA@AEBV012@@Z
??0DynamicEntryArray@ELF@LIEF@@QEAA@W4DYNAMIC_TAGS@12@V?$vector@_KV?$allocator@_K@std@@@std@@@Z
??0DynamicEntryArray@ELF@LIEF@@QEAA@W4DYNAMIC_TAGS@12@_K@Z
??0DynamicEntryArray@ELF@LIEF@@QEAA@XZ
??0DynamicEntryFlags@ELF@LIEF@@QEAA@AEBUElf32_Dyn@details@12@@Z
??0DynamicEntryFlags@ELF@LIEF@@QEAA@AEBUElf64_Dyn@details@12@@Z
??0DynamicEntryFlags@ELF@LIEF@@QEAA@AEBV012@@Z
??0DynamicEntryFlags@ELF@LIEF@@QEAA@W4DYNAMIC_TAGS@12@_K@Z
??0DynamicEntryFlags@ELF@LIEF@@QEAA@XZ
??0DynamicEntryLibrary@ELF@LIEF@@QEAA@AEBUElf32_Dyn@details@12@@Z
??0DynamicEntryLibrary@ELF@LIEF@@QEAA@AEBUElf64_Dyn@details@12@@Z
??0DynamicEntryLibrary@ELF@LIEF@@QEAA@AEBV012@@Z
??0DynamicEntryLibrary@ELF@LIEF@@QEAA@V?$basic_string@DU?$char_traits@D@std@@V?$allocator@D@2@@std@@@Z
??0DynamicEntryLibrary@ELF@LIEF@@QEAA@W4DYNAMIC_TAGS@12@_K@Z
??0DynamicEntryLibrary@ELF@LIEF@@QEAA@XZ
??0DynamicEntryRpath@ELF@LIEF@@QEAA@AEBUElf32_Dyn@details@12@@Z
??0DynamicEntryRpath@ELF@LIEF@@QEAA@AEBUElf64_Dyn@details@12@@Z
??0DynamicEntryRpath@ELF@LIEF@@QEAA@AEBV012@@Z
??0DynamicEntryRpath@ELF@LIEF@@QEAA@AEBV?$vector@V?$basic_string@DU?$char_traits@D@std@@V?$allocator@D@2@@std@@V?$allocator@V?$basic_string@DU?$char_traits@D@std@@V?$allocator@D@2@@std@@@2@@std@@@Z
??0DynamicEntryRpath@ELF@LIEF@@QEAA@V?$basic_string@DU?$char_traits@D@std@@V?$allocator@D@2@@std@@@Z
??0DynamicEntryRpath@ELF@LIEF@@QEAA@W4DYNAMIC_TAGS@12@_K@Z
??0DynamicEntryRpath@ELF@LIEF@@QEAA@XZ
??0DynamicEntryRunPath@ELF@LIEF@@QEAA@AEBUElf32_Dyn@details@12@@Z
??0DynamicEntryRunPath@ELF@LIEF@@QEAA@AEBUElf64_Dyn@details@12@@Z
??0DynamicEntryRunPath@ELF@LIEF@@QEAA@AEBV012@@Z
??0DynamicEntryRunPath@ELF@LIEF@@QEAA@AEBV?$vector@V?$basic_string@DU?$char_traits@D@std@@V?$allocator@D@2@@std@@V?$allocator@V?$basic_string@DU?$char_traits@D@std@@V?$allocator@D@2@@std@@@2@@std@@@Z
??0DynamicEntryRunPath@ELF@LIEF@@QEAA@V?$basic_string@DU?$char_traits@D@std@@V?$allocator@D@2@@std@@@Z
??0DynamicEntryRunPath@ELF@LIEF@@QEAA@W4DYNAMIC_TAGS@12@_K@Z
??0DynamicEntryRunPath@ELF@LIEF@@QEAA@XZ
??0DynamicSharedObject@ELF@LIEF@@QEAA@AEBUElf32_Dyn@details@12@@Z
??0DynamicSharedObject@ELF@LIEF@@QEAA@AEBUElf64_Dyn@details@12@@Z
??0DynamicSharedObject@ELF@LIEF@@QEAA@AEBV012@@Z
??0DynamicSharedObject@ELF@LIEF@@QEAA@V?$basic_string@DU?$char_traits@D@std@@V?$allocator@D@2@@std@@@Z
??0DynamicSharedObject@ELF@LIEF@@QEAA@W4DYNAMIC_TAGS@12@_K@Z
??0DynamicSharedObject@ELF@LIEF@@QEAA@XZ
??0DynamicSymbolCommand@MachO@LIEF@@QEAA@AEBUdysymtab_command@details@12@@Z
??0DynamicSymbolCommand@MachO@LIEF@@QEAA@AEBV012@@Z
??0DynamicSymbolCommand@MachO@LIEF@@QEAA@XZ
??0EncryptionInfo@MachO@LIEF@@QEAA@AEBUencryption_info_command@details@12@@Z
??0EncryptionInfo@MachO@LIEF@@QEAA@AEBV012@@Z
??0EncryptionInfo@MachO@LIEF@@QEAA@XZ
??0Export@PE@LIEF@@QEAA@AEBUpe_export_directory_table@details@12@@Z
??0Export@PE@LIEF@@QEAA@AEBV012@@Z
??0Export@PE@LIEF@@QEAA@XZ
??0ExportEntry@PE@LIEF@@QEAA@AEBV012@@Z
??0ExportEntry@PE@LIEF@@QEAA@I_NGI@Z
??0ExportEntry@PE@LIEF@@QEAA@XZ
??0ExportInfo@MachO@LIEF@@QEAA@AEBV012@@Z
??0ExportInfo@MachO@LIEF@@QEAA@XZ
??0ExportInfo@MachO@LIEF@@QEAA@_K00@Z
??0FatBinary@MachO@LIEF@@AEAA@V?$vector@V?$unique_ptr@VBinary@MachO@LIEF@@U?$default_delete@VBinary@MachO@LIEF@@@std@@@std@@V?$allocator@V?$unique_ptr@VBinary@MachO@LIEF@@U?$default_delete@VBinary@MachO@LIEF@@@std@@@std@@@2@@std@@@Z
??0FatBinary@MachO@LIEF@@AEAA@XZ
??0Field@DEX@LIEF@@QEAA@AEBV012@@Z
??0Field@DEX@LIEF@@QEAA@V?$basic_string@DU?$char_traits@D@std@@V?$allocator@D@2@@std@@PEAVClass@12@@Z
??0Field@DEX@LIEF@@QEAA@XZ
??0File@ART@LIEF@@AEAA@XZ
??0File@DEX@LIEF@@AEAA@XZ
??0File@VDEX@LIEF@@AEAA@XZ
??0FilesetCommand@MachO@LIEF@@QEAA@AEBUfileset_entry_command@details@12@@Z
??0FilesetCommand@MachO@LIEF@@QEAA@AEBV012@@Z
??0FilesetCommand@MachO@LIEF@@QEAA@AEBV?$basic_string@DU?$char_traits@D@std@@V?$allocator@D@2@@std@@@Z
??0FilesetCommand@MachO@LIEF@@QEAA@XZ
??0Function@LIEF@@QEAA@AEBV01@@Z
??0Function@LIEF@@QEAA@AEBV?$basic_string@DU?$char_traits@D@std@@V?$allocator@D@2@@std@@@Z
??0Function@LIEF@@QEAA@AEBV?$basic_string@DU?$char_traits@D@std@@V?$allocator@D@2@@std@@_K@Z
??0Function@LIEF@@QEAA@AEBV?$basic_string@DU?$char_traits@D@std@@V?$allocator@D@2@@std@@_KAEBV?$vector@W4FLAGS@Function@LIEF@@V?$allocator@W4FLAGS@Function@LIEF@@@std@@@3@@Z
??0Function@LIEF@@QEAA@XZ
??0Function@LIEF@@QEAA@_K@Z
??0FunctionStarts@MachO@LIEF@@QEAA@AEBUlinkedit_data_command@details@12@@Z
??0FunctionStarts@MachO@LIEF@@QEAA@AEBV012@@Z
??0FunctionStarts@MachO@LIEF@@QEAA@XZ
??0GenericType@PE@LIEF@@QEAA@AEBV012@@Z
??0GenericType@PE@LIEF@@QEAA@V?$basic_string@DU?$char_traits@D@std@@V?$allocator@D@2@@std@@V?$vector@EV?$allocator@E@std@@@4@@Z
??0GenericType@PE@LIEF@@QEAA@XZ
??0GnuHash@ELF@LIEF@@QEAA@$$QEAV012@@Z
??0GnuHash@ELF@LIEF@@QEAA@AEBV012@@Z
??0GnuHash@ELF@LIEF@@QEAA@IIV?$vector@_KV?$allocator@_K@std@@@std@@V?$vector@IV?$allocator@I@std@@@4@1@Z
??0GnuHash@ELF@LIEF@@QEAA@XZ
??0Handler@DataHandler@ELF@LIEF@@AEAA@XZ
??0Handler@DataHandler@ELF@LIEF@@QEAA@$$QEAV0123@@Z
??0Handler@DataHandler@ELF@LIEF@@QEAA@$$QEAV?$vector@EV?$allocator@E@std@@@std@@@Z
??0Handler@DataHandler@ELF@LIEF@@QEAA@V?$vector@EV?$allocator@E@std@@@std@@@Z
??0Hash@ART@LIEF@@QEAA@AEBV012@@Z
??0Hash@ART@LIEF@@QEAA@XZ
??0Hash@ART@LIEF@@QEAA@_K@Z
??0Hash@DEX@LIEF@@QEAA@AEBV012@@Z
??0Hash@DEX@LIEF@@QEAA@XZ
??0Hash@DEX@LIEF@@QEAA@_K@Z
??0Hash@ELF@LIEF@@QEAA@AEBV012@@Z
??0Hash@ELF@LIEF@@QEAA@XZ
??0Hash@ELF@LIEF@@QEAA@_K@Z
??0Hash@LIEF@@QEAA@AEBV01@@Z
??0Hash@LIEF@@QEAA@XZ
??0Hash@LIEF@@QEAA@_K@Z
??0Hash@MachO@LIEF@@QEAA@AEBV012@@Z
??0Hash@MachO@LIEF@@QEAA@XZ
??0Hash@MachO@LIEF@@QEAA@_K@Z
??0Hash@OAT@LIEF@@QEAA@AEBV012@@Z
??0Hash@OAT@LIEF@@QEAA@XZ
??0Hash@OAT@LIEF@@QEAA@_K@Z
??0Hash@PE@LIEF@@QEAA@AEBV012@@Z
??0Hash@PE@LIEF@@QEAA@XZ
??0Hash@PE@LIEF@@QEAA@_K@Z
??0Hash@VDEX@LIEF@@QEAA@AEBV012@@Z
??0Hash@VDEX@LIEF@@QEAA@XZ
??0Hash@VDEX@LIEF@@QEAA@_K@Z
??0Header@ART@LIEF@@QEAA@AEBV012@@Z
??0Header@ART@LIEF@@QEAA@XZ
??0Header@DEX@LIEF@@QEAA@AEBV012@@Z
??0Header@DEX@LIEF@@QEAA@XZ
??0Header@ELF@LIEF@@QEAA@AEBUElf32_Ehdr@details@12@@Z
??0Header@ELF@LIEF@@QEAA@AEBUElf64_Ehdr@details@12@@Z
??0Header@ELF@LIEF@@QEAA@AEBV012@@Z
??0Header@ELF@LIEF@@QEAA@XZ
??0Header@LIEF@@QEAA@AEBV01@@Z
??0Header@LIEF@@QEAA@XZ
??0Header@MachO@LIEF@@QEAA@AEBUmach_header@details@12@@Z
??0Header@MachO@LIEF@@QEAA@AEBUmach_header_64@details@12@@Z
??0Header@MachO@LIEF@@QEAA@AEBV012@@Z
??0Header@MachO@LIEF@@QEAA@XZ
??0Header@OAT@LIEF@@QEAA@AEBV012@@Z
??0Header@OAT@LIEF@@QEAA@XZ
??0Header@PE@LIEF@@QEAA@AEBUpe_header@details@12@@Z
??0Header@PE@LIEF@@QEAA@AEBV012@@Z
??0Header@PE@LIEF@@QEAA@XZ
??0Header@VDEX@LIEF@@QEAA@AEBV012@@Z
??0Header@VDEX@LIEF@@QEAA@XZ
??0Import@PE@LIEF@@QEAA@AEBUpe_import@details@12@@Z
??0Import@PE@LIEF@@QEAA@AEBV012@@Z
??0Import@PE@LIEF@@QEAA@V?$basic_string@DU?$char_traits@D@std@@V?$allocator@D@2@@std@@@Z
??0Import@PE@LIEF@@QEAA@XZ
??0ImportEntry@PE@LIEF@@QEAA@AEBV012@@Z
??0ImportEntry@PE@LIEF@@QEAA@AEBV?$basic_string@DU?$char_traits@D@std@@V?$allocator@D@2@@std@@@Z
??0ImportEntry@PE@LIEF@@QEAA@XZ
??0ImportEntry@PE@LIEF@@QEAA@_KAEBV?$basic_string@DU?$char_traits@D@std@@V?$allocator@D@2@@std@@@Z
??0LangCodeItem@PE@LIEF@@QEAA@AEBV012@@Z
??0LangCodeItem@PE@LIEF@@QEAA@GV?$basic_string@_SU?$char_traits@_S@std@@V?$allocator@_S@2@@std@@@Z
??0LangCodeItem@PE@LIEF@@QEAA@XZ
??0LoadCommand@MachO@LIEF@@QEAA@AEBUload_command@details@12@@Z
??0LoadCommand@MachO@LIEF@@QEAA@AEBV012@@Z
??0LoadCommand@MachO@LIEF@@QEAA@W4LOAD_COMMAND_TYPES@12@I@Z
??0LoadCommand@MachO@LIEF@@QEAA@XZ
??0LoadConfiguration@PE@LIEF@@QEAA@AEBV012@@Z
??0LoadConfiguration@PE@LIEF@@QEAA@XZ
??0LoadConfigurationV0@PE@LIEF@@QEAA@AEBV012@@Z
??0LoadConfigurationV0@PE@LIEF@@QEAA@XZ
??0LoadConfigurationV1@PE@LIEF@@QEAA@AEBV012@@Z
??0LoadConfigurationV1@PE@LIEF@@QEAA@XZ
??0LoadConfigurationV2@PE@LIEF@@QEAA@AEBV012@@Z
??0LoadConfigurationV2@PE@LIEF@@QEAA@XZ
??0LoadConfigurationV3@PE@LIEF@@QEAA@AEBV012@@Z
??0LoadConfigurationV3@PE@LIEF@@QEAA@XZ
??0LoadConfigurationV4@PE@LIEF@@QEAA@AEBV012@@Z
??0LoadConfigurationV4@PE@LIEF@@QEAA@XZ
??0LoadConfigurationV5@PE@LIEF@@QEAA@AEBV012@@Z
??0LoadConfigurationV5@PE@LIEF@@QEAA@XZ
??0LoadConfigurationV6@PE@LIEF@@QEAA@AEBV012@@Z
??0LoadConfigurationV6@PE@LIEF@@QEAA@XZ
??0LoadConfigurationV7@PE@LIEF@@QEAA@AEBV012@@Z
??0LoadConfigurationV7@PE@LIEF@@QEAA@XZ
??0MainCommand@MachO@LIEF@@QEAA@AEBUentry_point_command@details@12@@Z
??0MainCommand@MachO@LIEF@@QEAA@AEBV012@@Z
??0MainCommand@MachO@LIEF@@QEAA@XZ
??0MapItem@DEX@LIEF@@QEAA@AEBV012@@Z
??0MapItem@DEX@LIEF@@QEAA@W4TYPES@012@IIG@Z
??0MapItem@DEX@LIEF@@QEAA@XZ
??0MapList@DEX@LIEF@@QEAA@AEBV012@@Z
??0MapList@DEX@LIEF@@QEAA@XZ
??0Method@DEX@LIEF@@QEAA@AEBV012@@Z
??0Method@DEX@LIEF@@QEAA@V?$basic_string@DU?$char_traits@D@std@@V?$allocator@D@2@@std@@PEAVClass@12@@Z
??0Method@DEX@LIEF@@QEAA@XZ
??0Method@OAT@LIEF@@QEAA@AEBV012@@Z
??0Method@OAT@LIEF@@QEAA@PEAV0DEX@2@PEAVClass@12@V?$vector@EV?$allocator@E@std@@@std@@@Z
??0Method@OAT@LIEF@@QEAA@XZ
??0MsSpcNestedSignature@PE@LIEF@@QEAA@AEBV012@@Z
??0MsSpcNestedSignature@PE@LIEF@@QEAA@VSignature@12@@Z
??0MsSpcNestedSignature@PE@LIEF@@QEAA@XZ
??0MsSpcStatementType@PE@LIEF@@QEAA@AEBV012@@Z
??0MsSpcStatementType@PE@LIEF@@QEAA@V?$basic_string@DU?$char_traits@D@std@@V?$allocator@D@2@@std@@@Z
??0MsSpcStatementType@PE@LIEF@@QEAA@XZ
??0Node@DataHandler@ELF@LIEF@@QEAA@AEBV0123@@Z
??0Node@DataHandler@ELF@LIEF@@QEAA@XZ
??0Node@DataHandler@ELF@LIEF@@QEAA@_K0W4Type@0123@@Z
??0Note@ELF@LIEF@@QEAA@AEBV012@@Z
??0Note@ELF@LIEF@@QEAA@AEBV?$basic_string@DU?$char_traits@D@std@@V?$allocator@D@2@@std@@W4NOTE_TYPES@12@AEBV?$vector@EV?$allocator@E@std@@@4@PEAVBinary@12@@Z
??0Note@ELF@LIEF@@QEAA@AEBV?$basic_string@DU?$char_traits@D@std@@V?$allocator@D@2@@std@@W4NOTE_TYPES_CORE@12@AEBV?$vector@EV?$allocator@E@std@@@4@PEAVBinary@12@@Z
??0Note@ELF@LIEF@@QEAA@V?$basic_string@DU?$char_traits@D@std@@V?$allocator@D@2@@std@@IV?$vector@EV?$allocator@E@std@@@4@PEAVBinary@12@@Z
??0Note@ELF@LIEF@@QEAA@XZ
??0NoteAbi@ELF@LIEF@@AEAA@AEAVNote@12@@Z
??0NoteAbi@ELF@LIEF@@QEAA@AEBV012@@Z
??0NoteDetails@ELF@LIEF@@IEAA@AEAVNote@12@@Z
??0NoteDetails@ELF@LIEF@@QEAA@AEBV012@@Z
??0NoteDetails@ELF@LIEF@@QEAA@XZ
??0Object@LIEF@@QEAA@AEBV01@@Z
??0Object@LIEF@@QEAA@XZ
??0OptionalHeader@PE@LIEF@@QEAA@AEBUpe32_optional_header@details@12@@Z
??0OptionalHeader@PE@LIEF@@QEAA@AEBUpe64_optional_header@details@12@@Z
??0OptionalHeader@PE@LIEF@@QEAA@AEBV012@@Z
??0OptionalHeader@PE@LIEF@@QEAA@XZ
??0PKCS9AtSequenceNumber@PE@LIEF@@QEAA@AEBV012@@Z
??0PKCS9AtSequenceNumber@PE@LIEF@@QEAA@I@Z
??0PKCS9AtSequenceNumber@PE@LIEF@@QEAA@XZ
??0PKCS9CounterSignature@PE@LIEF@@QEAA@AEBV012@@Z
??0PKCS9CounterSignature@PE@LIEF@@QEAA@VSignerInfo@12@@Z
??0PKCS9CounterSignature@PE@LIEF@@QEAA@XZ
??0PKCS9MessageDigest@PE@LIEF@@QEAA@AEBV012@@Z
??0PKCS9MessageDigest@PE@LIEF@@QEAA@V?$vector@EV?$allocator@E@std@@@std@@@Z
??0PKCS9MessageDigest@PE@LIEF@@QEAA@XZ
??0PKCS9SigningTime@PE@LIEF@@QEAA@AEBV012@@Z
??0PKCS9SigningTime@PE@LIEF@@QEAA@V?$array@H$05@std@@@Z
??0PKCS9SigningTime@PE@LIEF@@QEAA@XZ
??0Parser@ART@LIEF@@AEAA@AEBV?$basic_string@DU?$char_traits@D@std@@V?$allocator@D@2@@std@@@Z
??0Parser@ART@LIEF@@AEAA@V?$vector@EV?$allocator@E@std@@@std@@@Z
??0Parser@ART@LIEF@@AEAA@XZ
??0Parser@DEX@LIEF@@AEAA@AEBV?$basic_string@DU?$char_traits@D@std@@V?$allocator@D@2@@std@@@Z
??0Parser@DEX@LIEF@@AEAA@V?$vector@EV?$allocator@E@std@@@std@@@Z
??0Parser@DEX@LIEF@@AEAA@XZ
??0Parser@ELF@LIEF@@IEAA@AEBV?$basic_string@DU?$char_traits@D@std@@V?$allocator@D@2@@std@@W4DYNSYM_COUNT_METHODS@12@@Z
??0Parser@ELF@LIEF@@IEAA@AEBV?$vector@EV?$allocator@E@std@@@std@@W4DYNSYM_COUNT_METHODS@12@@Z
??0Parser@ELF@LIEF@@IEAA@XZ
??0Parser@LIEF@@IEAA@AEBV?$basic_string@DU?$char_traits@D@std@@V?$allocator@D@2@@std@@@Z
??0Parser@LIEF@@IEAA@XZ
??0Parser@LIEF@@QEAA@AEBV01@@Z
??0Parser@MachO@LIEF@@AEAA@AEBV?$basic_string@DU?$char_traits@D@std@@V?$allocator@D@2@@std@@AEBUParserConfig@12@@Z
??0Parser@MachO@LIEF@@AEAA@V?$vector@EV?$allocator@E@std@@@std@@AEBUParserConfig@12@@Z
??0Parser@MachO@LIEF@@AEAA@XZ
??0Parser@OAT@LIEF@@IEAA@AEBV?$basic_string@DU?$char_traits@D@std@@V?$allocator@D@2@@std@@@Z
??0Parser@OAT@LIEF@@IEAA@V?$vector@EV?$allocator@E@std@@@std@@@Z
??0Parser@OAT@LIEF@@IEAA@XZ
??0Parser@PE@LIEF@@AEAA@AEBV?$basic_string@DU?$char_traits@D@std@@V?$allocator@D@2@@std@@@Z
??0Parser@PE@LIEF@@AEAA@V?$vector@EV?$allocator@E@std@@@std@@@Z
??0Parser@PE@LIEF@@AEAA@XZ
??0Parser@VDEX@LIEF@@AEAA@AEBV?$basic_string@DU?$char_traits@D@std@@V?$allocator@D@2@@std@@@Z
??0Parser@VDEX@LIEF@@AEAA@AEBV?$vector@EV?$allocator@E@std@@@std@@AEBV?$basic_string@DU?$char_traits@D@std@@V?$allocator@D@2@@4@@Z
??0Parser@VDEX@LIEF@@AEAA@XZ
??0ParserConfig@MachO@LIEF@@QEAA@XZ
??0Pogo@PE@LIEF@@QEAA@AEBV012@@Z
??0Pogo@PE@LIEF@@QEAA@W4POGO_SIGNATURES@12@V?$vector@VPogoEntry@PE@LIEF@@V?$allocator@VPogoEntry@PE@LIEF@@@std@@@std@@@Z
??0Pogo@PE@LIEF@@QEAA@XZ
??0PogoEntry@PE@LIEF@@QEAA@AEBV012@@Z
??0PogoEntry@PE@LIEF@@QEAA@IIV?$basic_string@DU?$char_traits@D@std@@V?$allocator@D@2@@std@@@Z
??0PogoEntry@PE@LIEF@@QEAA@XZ
??0Prototype@DEX@LIEF@@QEAA@AEBV012@@Z
??0Prototype@DEX@LIEF@@QEAA@XZ
??0RPathCommand@MachO@LIEF@@QEAA@AEBUrpath_command@details@12@@Z
??0RPathCommand@MachO@LIEF@@QEAA@AEBV012@@Z
??0RPathCommand@MachO@LIEF@@QEAA@XZ
??0Relocation@ELF@LIEF@@QEAA@AEBUElf32_Rel@details@12@@Z
??0Relocation@ELF@LIEF@@QEAA@AEBUElf32_Rela@details@12@@Z
??0Relocation@ELF@LIEF@@QEAA@AEBUElf64_Rel@details@12@@Z
??0Relocation@ELF@LIEF@@QEAA@AEBUElf64_Rela@details@12@@Z
??0Relocation@ELF@LIEF@@QEAA@AEBV012@@Z
??0Relocation@ELF@LIEF@@QEAA@W4ARCH@12@@Z
??0Relocation@ELF@LIEF@@QEAA@XZ
??0Relocation@ELF@LIEF@@QEAA@_KI_J_N@Z
??0Relocation@LIEF@@QEAA@AEBV01@@Z
??0Relocation@LIEF@@QEAA@XZ
??0Relocation@LIEF@@QEAA@_KE@Z
??0Relocation@MachO@LIEF@@QEAA@AEBV012@@Z
??0Relocation@MachO@LIEF@@QEAA@XZ
??0Relocation@MachO@LIEF@@QEAA@_KE@Z
??0Relocation@PE@LIEF@@QEAA@AEBUpe_base_relocation_block@details@12@@Z
??0Relocation@PE@LIEF@@QEAA@AEBV012@@Z
??0Relocation@PE@LIEF@@QEAA@XZ
??0RelocationDyld@MachO@LIEF@@QEAA@AEBV012@@Z
??0RelocationDyld@MachO@LIEF@@QEAA@XZ
??0RelocationDyld@MachO@LIEF@@QEAA@_KE@Z
??0RelocationEntry@PE@LIEF@@QEAA@AEBV012@@Z
??0RelocationEntry@PE@LIEF@@QEAA@G@Z
??0RelocationEntry@PE@LIEF@@QEAA@GW4RELOCATIONS_BASE_TYPES@12@@Z
??0RelocationEntry@PE@LIEF@@QEAA@XZ
??0RelocationObject@MachO@LIEF@@QEAA@AEBUrelocation_info@details@12@@Z
??0RelocationObject@MachO@LIEF@@QEAA@AEBUscattered_relocation_info@details@12@@Z
??0RelocationObject@MachO@LIEF@@QEAA@AEBV012@@Z
??0RelocationObject@MachO@LIEF@@QEAA@XZ
??0RelocationObject@MachO@LIEF@@QEAA@_KE@Z
??0ResourceAccelerator@PE@LIEF@@QEAA@AEBUpe_resource_acceltableentry@details@12@@Z
??0ResourceAccelerator@PE@LIEF@@QEAA@AEBV012@@Z
??0ResourceAccelerator@PE@LIEF@@QEAA@XZ
??0ResourceData@PE@LIEF@@QEAA@AEBV012@@Z
??0ResourceData@PE@LIEF@@QEAA@V?$vector@EV?$allocator@E@std@@@std@@I@Z
??0ResourceData@PE@LIEF@@QEAA@XZ
??0ResourceDialog@PE@LIEF@@QEAA@AEBUpe_dialog_template@details@12@@Z
??0ResourceDialog@PE@LIEF@@QEAA@AEBUpe_dialog_template_ext@details@12@@Z
??0ResourceDialog@PE@LIEF@@QEAA@AEBV012@@Z
??0ResourceDialog@PE@LIEF@@QEAA@XZ
??0ResourceDialogItem@PE@LIEF@@QEAA@AEBUpe_dialog_item_template@details@12@@Z
??0ResourceDialogItem@PE@LIEF@@QEAA@AEBUpe_dialog_item_template_ext@details@12@@Z
??0ResourceDialogItem@PE@LIEF@@QEAA@AEBV012@@Z
??0ResourceDialogItem@PE@LIEF@@QEAA@XZ
??0ResourceDirectory@PE@LIEF@@QEAA@AEBUpe_resource_directory_table@details@12@@Z
??0ResourceDirectory@PE@LIEF@@QEAA@AEBV012@@Z
??0ResourceDirectory@PE@LIEF@@QEAA@XZ
??0ResourceFixedFileInfo@PE@LIEF@@QEAA@AEBUpe_resource_fixed_file_info@details@12@@Z
??0ResourceFixedFileInfo@PE@LIEF@@QEAA@AEBV012@@Z
??0ResourceFixedFileInfo@PE@LIEF@@QEAA@XZ
??0ResourceIcon@PE@LIEF@@QEAA@AEBUpe_icon_header@details@12@@Z
??0ResourceIcon@PE@LIEF@@QEAA@AEBUpe_resource_icon_group@details@12@@Z
??0ResourceIcon@PE@LIEF@@QEAA@AEBV012@@Z
??0ResourceIcon@PE@LIEF@@QEAA@XZ
??0ResourceNode@PE@LIEF@@IEAA@XZ
??0ResourceNode@PE@LIEF@@QEAA@$$QEAV012@@Z
??0ResourceNode@PE@LIEF@@QEAA@AEBV012@@Z
??0ResourceStringFileInfo@PE@LIEF@@QEAA@AEBV012@@Z
??0ResourceStringFileInfo@PE@LIEF@@QEAA@GV?$basic_string@_SU?$char_traits@_S@std@@V?$allocator@_S@2@@std@@@Z
??0ResourceStringFileInfo@PE@LIEF@@QEAA@XZ
??0ResourceStringTable@PE@LIEF@@QEAA@AEBV012@@Z
??0ResourceStringTable@PE@LIEF@@QEAA@FV?$basic_string@_SU?$char_traits@_S@std@@V?$allocator@_S@2@@std@@@Z
??0ResourceStringTable@PE@LIEF@@QEAA@XZ
??0ResourceVarFileInfo@PE@LIEF@@QEAA@AEBV012@@Z
??0ResourceVarFileInfo@PE@LIEF@@QEAA@GV?$basic_string@_SU?$char_traits@_S@std@@V?$allocator@_S@2@@std@@@Z
??0ResourceVarFileInfo@PE@LIEF@@QEAA@XZ
??0ResourceVersion@PE@LIEF@@AEAA@XZ
??0ResourceVersion@PE@LIEF@@QEAA@AEBV012@@Z
??0ResourcesManager@PE@LIEF@@QEAA@AEAVResourceNode@12@@Z
??0ResourcesManager@PE@LIEF@@QEAA@AEBV012@@Z
??0RichEntry@PE@LIEF@@QEAA@AEBV012@@Z
??0RichEntry@PE@LIEF@@QEAA@GGI@Z
??0RichEntry@PE@LIEF@@QEAA@XZ
??0RichHeader@PE@LIEF@@QEAA@AEBV012@@Z
??0RichHeader@PE@LIEF@@QEAA@XZ
??0RsaInfo@PE@LIEF@@AEAA@QEAX@Z
??0RsaInfo@PE@LIEF@@AEAA@XZ
??0RsaInfo@PE@LIEF@@QEAA@$$QEAV012@@Z
??0RsaInfo@PE@LIEF@@QEAA@AEBV012@@Z
??0Section@ELF@LIEF@@QEAA@AEBUElf32_Shdr@details@12@@Z
??0Section@ELF@LIEF@@QEAA@AEBUElf64_Shdr@details@12@@Z
??0Section@ELF@LIEF@@QEAA@AEBV012@@Z
??0Section@ELF@LIEF@@QEAA@AEBV?$basic_string@DU?$char_traits@D@std@@V?$allocator@D@2@@std@@W4ELF_SECTION_TYPES@12@@Z
??0Section@ELF@LIEF@@QEAA@PEBEW4ELF_CLASS@12@@Z
??0Section@ELF@LIEF@@QEAA@XZ
??0Section@LIEF@@QEAA@AEBV01@@Z
??0Section@LIEF@@QEAA@V?$basic_string@DU?$char_traits@D@std@@V?$allocator@D@2@@std@@@Z
??0Section@LIEF@@QEAA@XZ
??0Section@MachO@LIEF@@QEAA@AEBUsection_32@details@12@@Z
??0Section@MachO@LIEF@@QEAA@AEBUsection_64@details@12@@Z
??0Section@MachO@LIEF@@QEAA@AEBV012@@Z
??0Section@MachO@LIEF@@QEAA@V?$basic_string@DU?$char_traits@D@std@@V?$allocator@D@2@@std@@@Z
??0Section@MachO@LIEF@@QEAA@V?$basic_string@DU?$char_traits@D@std@@V?$allocator@D@2@@std@@V?$vector@EV?$allocator@E@std@@@4@@Z
??0Section@MachO@LIEF@@QEAA@XZ
??0Section@PE@LIEF@@QEAA@AEBUpe_section@details@12@@Z
??0Section@PE@LIEF@@QEAA@AEBV012@@Z
??0Section@PE@LIEF@@QEAA@AEBV?$basic_string@DU?$char_traits@D@std@@V?$allocator@D@2@@std@@@Z
??0Section@PE@LIEF@@QEAA@AEBV?$vector@EV?$allocator@E@std@@@std@@AEBV?$basic_string@DU?$char_traits@D@std@@V?$allocator@D@2@@4@I@Z
??0Section@PE@LIEF@@QEAA@XZ
??0Segment@ELF@LIEF@@QEAA@$$QEAV012@@Z
??0Segment@ELF@LIEF@@QEAA@AEBUElf32_Phdr@details@12@@Z
??0Segment@ELF@LIEF@@QEAA@AEBUElf64_Phdr@details@12@@Z
??0Segment@ELF@LIEF@@QEAA@AEBV012@@Z
??0Segment@ELF@LIEF@@QEAA@XZ
??0SegmentCommand@MachO@LIEF@@QEAA@AEBUsegment_command_32@details@12@@Z
??0SegmentCommand@MachO@LIEF@@QEAA@AEBUsegment_command_64@details@12@@Z
??0SegmentCommand@MachO@LIEF@@QEAA@AEBV012@@Z
??0SegmentCommand@MachO@LIEF@@QEAA@V?$basic_string@DU?$char_traits@D@std@@V?$allocator@D@2@@std@@@Z
??0SegmentCommand@MachO@LIEF@@QEAA@V?$basic_string@DU?$char_traits@D@std@@V?$allocator@D@2@@std@@V?$vector@EV?$allocator@E@std@@@4@@Z
??0SegmentCommand@MachO@LIEF@@QEAA@XZ
??0SegmentSplitInfo@MachO@LIEF@@QEAA@AEBUlinkedit_data_command@details@12@@Z
??0SegmentSplitInfo@MachO@LIEF@@QEAA@AEBV012@@Z
??0SegmentSplitInfo@MachO@LIEF@@QEAA@XZ
??0Signature@PE@LIEF@@QEAA@$$QEAV012@@Z
??0Signature@PE@LIEF@@QEAA@AEBV012@@Z
??0Signature@PE@LIEF@@QEAA@XZ
??0SignatureParser@PE@LIEF@@AEAA@V?$vector@EV?$allocator@E@std@@@std@@@Z
??0SignatureParser@PE@LIEF@@AEAA@XZ
??0SignerInfo@PE@LIEF@@QEAA@$$QEAV012@@Z
??0SignerInfo@PE@LIEF@@QEAA@AEBV012@@Z
??0SignerInfo@PE@LIEF@@QEAA@XZ
??0SourceVersion@MachO@LIEF@@QEAA@AEBUsource_version_command@details@12@@Z
??0SourceVersion@MachO@LIEF@@QEAA@AEBV012@@Z
??0SourceVersion@MachO@LIEF@@QEAA@XZ
??0SpcSpOpusInfo@PE@LIEF@@QEAA@AEBV012@@Z
??0SpcSpOpusInfo@PE@LIEF@@QEAA@V?$basic_string@DU?$char_traits@D@std@@V?$allocator@D@2@@std@@0@Z
??0SpcSpOpusInfo@PE@LIEF@@QEAA@XZ
??0SubFramework@MachO@LIEF@@QEAA@AEBUsub_framework_command@details@12@@Z
??0SubFramework@MachO@LIEF@@QEAA@AEBV012@@Z
??0SubFramework@MachO@LIEF@@QEAA@XZ
??0Symbol@ELF@LIEF@@QEAA@AEBUElf32_Sym@details@12@@Z
??0Symbol@ELF@LIEF@@QEAA@AEBUElf64_Sym@details@12@@Z
??0Symbol@ELF@LIEF@@QEAA@AEBV012@@Z
??0Symbol@ELF@LIEF@@QEAA@V?$basic_string@DU?$char_traits@D@std@@V?$allocator@D@2@@std@@W4ELF_SYMBOL_TYPES@12@W4SYMBOL_BINDINGS@12@EG_K3@Z
??0Symbol@ELF@LIEF@@QEAA@XZ
??0Symbol@LIEF@@QEAA@AEBV01@@Z
??0Symbol@LIEF@@QEAA@V?$basic_string@DU?$char_traits@D@std@@V?$allocator@D@2@@std@@@Z
??0Symbol@LIEF@@QEAA@V?$basic_string@DU?$char_traits@D@std@@V?$allocator@D@2@@std@@_K1@Z
??0Symbol@LIEF@@QEAA@V?$basic_string@DU?$char_traits@D@std@@V?$allocator@D@2@@std@@_K@Z
??0Symbol@LIEF@@QEAA@XZ
??0Symbol@MachO@LIEF@@QEAA@AEBUnlist_32@details@12@@Z
??0Symbol@MachO@LIEF@@QEAA@AEBUnlist_64@details@12@@Z
??0Symbol@MachO@LIEF@@QEAA@AEBV012@@Z
??0Symbol@MachO@LIEF@@QEAA@XZ
??0Symbol@PE@LIEF@@QEAA@AEBUpe_symbol@details@12@@Z
??0Symbol@PE@LIEF@@QEAA@AEBV012@@Z
??0Symbol@PE@LIEF@@QEAA@XZ
??0SymbolCommand@MachO@LIEF@@QEAA@AEBUsymtab_command@details@12@@Z
??0SymbolCommand@MachO@LIEF@@QEAA@AEBV012@@Z
??0SymbolCommand@MachO@LIEF@@QEAA@XZ
??0SymbolVersion@ELF@LIEF@@QEAA@AEBV012@@Z
??0SymbolVersion@ELF@LIEF@@QEAA@G@Z
??0SymbolVersion@ELF@LIEF@@QEAA@XZ
??0SymbolVersionAux@ELF@LIEF@@QEAA@AEBV012@@Z
??0SymbolVersionAux@ELF@LIEF@@QEAA@V?$basic_string@DU?$char_traits@D@std@@V?$allocator@D@2@@std@@@Z
??0SymbolVersionAux@ELF@LIEF@@QEAA@XZ
??0SymbolVersionAuxRequirement@ELF@LIEF@@QEAA@AEBUElf32_Vernaux@details@12@@Z
??0SymbolVersionAuxRequirement@ELF@LIEF@@QEAA@AEBUElf64_Vernaux@details@12@@Z
??0SymbolVersionAuxRequirement@ELF@LIEF@@QEAA@AEBV012@@Z
??0SymbolVersionAuxRequirement@ELF@LIEF@@QEAA@XZ
??0SymbolVersionDefinition@ELF@LIEF@@QEAA@AEBUElf32_Verdef@details@12@@Z
??0SymbolVersionDefinition@ELF@LIEF@@QEAA@AEBUElf64_Verdef@details@12@@Z
??0SymbolVersionDefinition@ELF@LIEF@@QEAA@AEBV012@@Z
??0SymbolVersionDefinition@ELF@LIEF@@QEAA@XZ
??0SymbolVersionRequirement@ELF@LIEF@@QEAA@AEBUElf32_Verneed@details@12@@Z
??0SymbolVersionRequirement@ELF@LIEF@@QEAA@AEBUElf64_Verneed@details@12@@Z
??0SymbolVersionRequirement@ELF@LIEF@@QEAA@AEBV012@@Z
??0SymbolVersionRequirement@ELF@LIEF@@QEAA@XZ
??0SysvHash@ELF@LIEF@@QEAA@$$QEAV012@@Z
??0SysvHash@ELF@LIEF@@QEAA@AEBV012@@Z
??0SysvHash@ELF@LIEF@@QEAA@XZ
??0TLS@PE@LIEF@@QEAA@AEBUpe32_tls@details@12@@Z
??0TLS@PE@LIEF@@QEAA@AEBUpe64_tls@details@12@@Z
??0TLS@PE@LIEF@@QEAA@AEBV012@@Z
??0TLS@PE@LIEF@@QEAA@XZ
??0ThreadCommand@MachO@LIEF@@QEAA@AEBUthread_command@details@12@W4CPU_TYPES@12@@Z
??0ThreadCommand@MachO@LIEF@@QEAA@AEBV012@@Z
??0ThreadCommand@MachO@LIEF@@QEAA@IIW4CPU_TYPES@12@@Z
??0ThreadCommand@MachO@LIEF@@QEAA@XZ
??0Type@DEX@LIEF@@QEAA@AEBV012@@Z
??0Type@DEX@LIEF@@QEAA@AEBV?$basic_string@DU?$char_traits@D@std@@V?$allocator@D@2@@std@@@Z
??0Type@DEX@LIEF@@QEAA@XZ
??0UUIDCommand@MachO@LIEF@@QEAA@AEBUuuid_command@details@12@@Z
??0UUIDCommand@MachO@LIEF@@QEAA@AEBV012@@Z
??0UUIDCommand@MachO@LIEF@@QEAA@XZ
??0VersionMin@MachO@LIEF@@QEAA@AEBUversion_min_command@details@12@@Z
??0VersionMin@MachO@LIEF@@QEAA@AEBV012@@Z
??0VersionMin@MachO@LIEF@@QEAA@XZ
??0Visitor@LIEF@@QEAA@AEBV01@@Z
??0Visitor@LIEF@@QEAA@XZ
??0bad_file@LIEF@@QEAA@$$QEAV01@@Z
??0bad_file@LIEF@@QEAA@AEBV01@@Z
??0bad_file@LIEF@@QEAA@PEBD@Z
??0bad_file@LIEF@@QEAA@V?$basic_string@DU?$char_traits@D@std@@V?$allocator@D@2@@std@@@Z
??0bad_format@LIEF@@QEAA@$$QEAV01@@Z
??0bad_format@LIEF@@QEAA@AEBV01@@Z
??0bad_format@LIEF@@QEAA@PEBD@Z
??0bad_format@LIEF@@QEAA@V?$basic_string@DU?$char_traits@D@std@@V?$allocator@D@2@@std@@@Z
??0builder_error@LIEF@@QEAA@$$QEAV01@@Z
??0builder_error@LIEF@@QEAA@AEBV01@@Z
??0builder_error@LIEF@@QEAA@PEBD@Z
??0builder_error@LIEF@@QEAA@V?$basic_string@DU?$char_traits@D@std@@V?$allocator@D@2@@std@@@Z
??0conversion_error@LIEF@@QEAA@$$QEAV01@@Z
??0conversion_error@LIEF@@QEAA@AEBV01@@Z
??0conversion_error@LIEF@@QEAA@PEBD@Z
??0conversion_error@LIEF@@QEAA@V?$basic_string@DU?$char_traits@D@std@@V?$allocator@D@2@@std@@@Z
??0corrupted@LIEF@@QEAA@$$QEAV01@@Z
??0corrupted@LIEF@@QEAA@AEBV01@@Z
??0corrupted@LIEF@@QEAA@PEBD@Z
??0corrupted@LIEF@@QEAA@V?$basic_string@DU?$char_traits@D@std@@V?$allocator@D@2@@std@@@Z
??0exception@LIEF@@QEAA@AEBV01@@Z
??0exception@LIEF@@QEAA@PEBD@Z
??0exception@LIEF@@QEAA@V?$basic_string@DU?$char_traits@D@std@@V?$allocator@D@2@@std@@@Z
??0forward_information_t@ExportEntry@PE@LIEF@@QEAA@$$QEAU0123@@Z
??0forward_information_t@ExportEntry@PE@LIEF@@QEAA@AEBU0123@@Z
??0forward_information_t@ExportEntry@PE@LIEF@@QEAA@XZ
??0integrity_error@LIEF@@QEAA@$$QEAV01@@Z
??0integrity_error@LIEF@@QEAA@AEBV01@@Z
??0integrity_error@LIEF@@QEAA@PEBD@Z
??0integrity_error@LIEF@@QEAA@V?$basic_string@DU?$char_traits@D@std@@V?$allocator@D@2@@std@@@Z
??0not_found@LIEF@@QEAA@$$QEAV01@@Z
??0not_found@LIEF@@QEAA@AEBV01@@Z
??0not_found@LIEF@@QEAA@PEBD@Z
??0not_found@LIEF@@QEAA@V?$basic_string@DU?$char_traits@D@std@@V?$allocator@D@2@@std@@@Z
??0not_implemented@LIEF@@QEAA@$$QEAV01@@Z
??0not_implemented@LIEF@@QEAA@AEBV01@@Z
??0not_implemented@LIEF@@QEAA@PEBD@Z
??0not_implemented@LIEF@@QEAA@V?$basic_string@DU?$char_traits@D@std@@V?$allocator@D@2@@std@@@Z
??0not_supported@LIEF@@QEAA@$$QEAV01@@Z
??0not_supported@LIEF@@QEAA@AEBV01@@Z
??0not_supported@LIEF@@QEAA@PEBD@Z
??0not_supported@LIEF@@QEAA@V?$basic_string@DU?$char_traits@D@std@@V?$allocator@D@2@@std@@@Z
??0parser_error@LIEF@@QEAA@$$QEAV01@@Z
??0parser_error@LIEF@@QEAA@AEBV01@@Z
??0parser_error@LIEF@@QEAA@PEBD@Z
??0parser_error@LIEF@@QEAA@V?$basic_string@DU?$char_traits@D@std@@V?$allocator@D@2@@std@@@Z
??0pe_bad_section_name@LIEF@@QEAA@$$QEAV01@@Z
??0pe_bad_section_name@LIEF@@QEAA@AEBV01@@Z
??0pe_bad_section_name@LIEF@@QEAA@PEBD@Z
??0pe_bad_section_name@LIEF@@QEAA@V?$basic_string@DU?$char_traits@D@std@@V?$allocator@D@2@@std@@@Z
??0pe_error@LIEF@@QEAA@$$QEAV01@@Z
??0pe_error@LIEF@@QEAA@AEBV01@@Z
??0pe_error@LIEF@@QEAA@PEBD@Z
??0pe_error@LIEF@@QEAA@V?$basic_string@DU?$char_traits@D@std@@V?$allocator@D@2@@std@@@Z
??0read_out_of_bound@LIEF@@QEAA@$$QEAV01@@Z
??0read_out_of_bound@LIEF@@QEAA@AEBV01@@Z
??0read_out_of_bound@LIEF@@QEAA@PEBD@Z
??0read_out_of_bound@LIEF@@QEAA@V?$basic_string@DU?$char_traits@D@std@@V?$allocator@D@2@@std@@@Z
??0read_out_of_bound@LIEF@@QEAA@_K0@Z
??0read_out_of_bound@LIEF@@QEAA@_K@Z
??0type_error@LIEF@@QEAA@$$QEAV01@@Z
??0type_error@LIEF@@QEAA@AEBV01@@Z
??0type_error@LIEF@@QEAA@PEBD@Z
??0type_error@LIEF@@QEAA@V?$basic_string@DU?$char_traits@D@std@@V?$allocator@D@2@@std@@@Z
??0x509@PE@LIEF@@AEAA@XZ
??0x509@PE@LIEF@@QEAA@AEBV012@@Z
??0x509@PE@LIEF@@QEAA@PEAUmbedtls_x509_crt@@@Z
??1AbstractHash@LIEF@@UEAA@XZ
??1AndroidNote@ELF@LIEF@@UEAA@XZ
??1Attribute@PE@LIEF@@UEAA@XZ
??1Binary@ELF@LIEF@@UEAA@XZ
??1Binary@LIEF@@UEAA@XZ
??1Binary@MachO@LIEF@@UEAA@XZ
??1Binary@OAT@LIEF@@UEAA@XZ
??1Binary@PE@LIEF@@UEAA@XZ
??1BinaryParser@MachO@LIEF@@QEAA@XZ
??1BindingInfo@MachO@LIEF@@UEAA@XZ
??1BuildToolVersion@MachO@LIEF@@UEAA@XZ
??1BuildVersion@MachO@LIEF@@UEAA@XZ
??1Builder@ELF@LIEF@@QEAA@XZ
??1Builder@MachO@LIEF@@QEAA@XZ
??1Builder@PE@LIEF@@QEAA@XZ
??1Class@DEX@LIEF@@UEAA@XZ
??1Class@OAT@LIEF@@UEAA@XZ
??1CodeInfo@DEX@LIEF@@UEAA@XZ
??1CodeIntegrity@PE@LIEF@@UEAA@XZ
??1CodeSignature@MachO@LIEF@@UEAA@XZ
??1CodeView@PE@LIEF@@UEAA@XZ
??1CodeViewPDB@PE@LIEF@@UEAA@XZ
??1ContentInfo@PE@LIEF@@UEAA@XZ
??1ContentType@PE@LIEF@@UEAA@XZ
??1CoreAuxv@ELF@LIEF@@UEAA@XZ
??1CoreFile@ELF@LIEF@@UEAA@XZ
??1CorePrPsInfo@ELF@LIEF@@UEAA@XZ
??1CorePrStatus@ELF@LIEF@@UEAA@XZ
??1CoreSigInfo@ELF@LIEF@@UEAA@XZ
??1DataCodeEntry@MachO@LIEF@@UEAA@XZ
??1DataDirectory@PE@LIEF@@UEAA@XZ
??1DataInCode@MachO@LIEF@@UEAA@XZ
??1Debug@PE@LIEF@@UEAA@XZ
??1DelayImport@PE@LIEF@@UEAA@XZ
??1DelayImportEntry@PE@LIEF@@UEAA@XZ
??1DexFile@OAT@LIEF@@UEAA@XZ
??1DosHeader@PE@LIEF@@UEAA@XZ
??1DyldEnvironment@MachO@LIEF@@UEAA@XZ
??1DyldInfo@MachO@LIEF@@UEAA@XZ
??1DylibCommand@MachO@LIEF@@UEAA@XZ
??1DylinkerCommand@MachO@LIEF@@UEAA@XZ
??1DynamicEntry@ELF@LIEF@@UEAA@XZ
??1DynamicEntryArray@ELF@LIEF@@UEAA@XZ
??1DynamicEntryFlags@ELF@LIEF@@UEAA@XZ
??1DynamicEntryLibrary@ELF@LIEF@@UEAA@XZ
??1DynamicEntryRpath@ELF@LIEF@@UEAA@XZ
??1DynamicEntryRunPath@ELF@LIEF@@UEAA@XZ
??1DynamicSharedObject@ELF@LIEF@@UEAA@XZ
??1DynamicSymbolCommand@MachO@LIEF@@UEAA@XZ
??1EncryptionInfo@MachO@LIEF@@UEAA@XZ
??1Export@PE@LIEF@@UEAA@XZ
??1ExportEntry@PE@LIEF@@UEAA@XZ
??1ExportInfo@MachO@LIEF@@UEAA@XZ
??1FatBinary@MachO@LIEF@@UEAA@XZ
??1Field@DEX@LIEF@@UEAA@XZ
??1File@ART@LIEF@@UEAA@XZ
??1File@DEX@LIEF@@UEAA@XZ
??1File@VDEX@LIEF@@UEAA@XZ
??1FilesetCommand@MachO@LIEF@@UEAA@XZ
??1Function@LIEF@@UEAA@XZ
??1FunctionStarts@MachO@LIEF@@UEAA@XZ
??1GenericType@PE@LIEF@@UEAA@XZ
??1GnuHash@ELF@LIEF@@UEAA@XZ
??1Handler@DataHandler@ELF@LIEF@@QEAA@XZ
??1Hash@ART@LIEF@@UEAA@XZ
??1Hash@DEX@LIEF@@UEAA@XZ
??1Hash@ELF@LIEF@@UEAA@XZ
??1Hash@LIEF@@UEAA@XZ
??1Hash@MachO@LIEF@@UEAA@XZ
??1Hash@OAT@LIEF@@UEAA@XZ
??1Hash@PE@LIEF@@UEAA@XZ
??1Hash@VDEX@LIEF@@UEAA@XZ
??1Header@ART@LIEF@@UEAA@XZ
??1Header@DEX@LIEF@@UEAA@XZ
??1Header@ELF@LIEF@@UEAA@XZ
??1Header@LIEF@@UEAA@XZ
??1Header@MachO@LIEF@@UEAA@XZ
??1Header@OAT@LIEF@@UEAA@XZ
??1Header@PE@LIEF@@UEAA@XZ
??1Header@VDEX@LIEF@@UEAA@XZ
??1Import@PE@LIEF@@UEAA@XZ
??1ImportEntry@PE@LIEF@@UEAA@XZ
??1LangCodeItem@PE@LIEF@@UEAA@XZ
??1LoadCommand@MachO@LIEF@@UEAA@XZ
??1LoadConfiguration@PE@LIEF@@UEAA@XZ
??1LoadConfigurationV0@PE@LIEF@@UEAA@XZ
??1LoadConfigurationV1@PE@LIEF@@UEAA@XZ
??1LoadConfigurationV2@PE@LIEF@@UEAA@XZ
??1LoadConfigurationV3@PE@LIEF@@UEAA@XZ
??1LoadConfigurationV4@PE@LIEF@@UEAA@XZ
??1LoadConfigurationV5@PE@LIEF@@UEAA@XZ
??1LoadConfigurationV6@PE@LIEF@@UEAA@XZ
??1LoadConfigurationV7@PE@LIEF@@UEAA@XZ
??1MainCommand@MachO@LIEF@@UEAA@XZ
??1MapItem@DEX@LIEF@@UEAA@XZ
??1MapList@DEX@LIEF@@UEAA@XZ
??1Method@DEX@LIEF@@UEAA@XZ
??1Method@OAT@LIEF@@UEAA@XZ
??1MsSpcNestedSignature@PE@LIEF@@UEAA@XZ
??1MsSpcStatementType@PE@LIEF@@UEAA@XZ
??1Node@DataHandler@ELF@LIEF@@QEAA@XZ
??1Note@ELF@LIEF@@UEAA@XZ
??1NoteAbi@ELF@LIEF@@UEAA@XZ
??1NoteDetails@ELF@LIEF@@UEAA@XZ
??1Object@LIEF@@UEAA@XZ
??1OptionalHeader@PE@LIEF@@UEAA@XZ
??1PKCS9AtSequenceNumber@PE@LIEF@@UEAA@XZ
??1PKCS9CounterSignature@PE@LIEF@@UEAA@XZ
??1PKCS9MessageDigest@PE@LIEF@@UEAA@XZ
??1PKCS9SigningTime@PE@LIEF@@UEAA@XZ
??1Parser@ART@LIEF@@EEAA@XZ
??1Parser@DEX@LIEF@@AEAA@XZ
??1Parser@ELF@LIEF@@IEAA@XZ
??1Parser@LIEF@@IEAA@XZ
??1Parser@MachO@LIEF@@QEAA@XZ
??1Parser@OAT@LIEF@@IEAA@XZ
??1Parser@PE@LIEF@@AEAA@XZ
??1Parser@VDEX@LIEF@@EEAA@XZ
??1Pogo@PE@LIEF@@UEAA@XZ
??1PogoEntry@PE@LIEF@@UEAA@XZ
??1Prototype@DEX@LIEF@@UEAA@XZ
??1RPathCommand@MachO@LIEF@@UEAA@XZ
??1Relocation@ELF@LIEF@@UEAA@XZ
??1Relocation@LIEF@@UEAA@XZ
??1Relocation@MachO@LIEF@@UEAA@XZ
??1Relocation@PE@LIEF@@UEAA@XZ
??1RelocationDyld@MachO@LIEF@@UEAA@XZ
??1RelocationEntry@PE@LIEF@@UEAA@XZ
??1RelocationObject@MachO@LIEF@@UEAA@XZ
??1ResourceAccelerator@PE@LIEF@@UEAA@XZ
??1ResourceData@PE@LIEF@@UEAA@XZ
??1ResourceDialog@PE@LIEF@@UEAA@XZ
??1ResourceDialogItem@PE@LIEF@@UEAA@XZ
??1ResourceDirectory@PE@LIEF@@UEAA@XZ
??1ResourceFixedFileInfo@PE@LIEF@@UEAA@XZ
??1ResourceIcon@PE@LIEF@@UEAA@XZ
??1ResourceNode@PE@LIEF@@UEAA@XZ
??1ResourceStringFileInfo@PE@LIEF@@UEAA@XZ
??1ResourceStringTable@PE@LIEF@@UEAA@XZ
??1ResourceVarFileInfo@PE@LIEF@@UEAA@XZ
??1ResourceVersion@PE@LIEF@@UEAA@XZ
??1ResourcesManager@PE@LIEF@@UEAA@XZ
??1RichEntry@PE@LIEF@@UEAA@XZ
??1RichHeader@PE@LIEF@@UEAA@XZ
??1RsaInfo@PE@LIEF@@QEAA@XZ
??1Section@ELF@LIEF@@UEAA@XZ
??1Section@LIEF@@UEAA@XZ
??1Section@MachO@LIEF@@UEAA@XZ
??1Section@PE@LIEF@@UEAA@XZ
??1Segment@ELF@LIEF@@UEAA@XZ
??1SegmentCommand@MachO@LIEF@@UEAA@XZ
??1SegmentSplitInfo@MachO@LIEF@@UEAA@XZ
??1Signature@PE@LIEF@@UEAA@XZ
??1SignatureParser@PE@LIEF@@AEAA@XZ
??1SignerInfo@PE@LIEF@@UEAA@XZ
??1SourceVersion@MachO@LIEF@@UEAA@XZ
??1SpcSpOpusInfo@PE@LIEF@@UEAA@XZ
??1SubFramework@MachO@LIEF@@UEAA@XZ
??1Symbol@ELF@LIEF@@UEAA@XZ
??1Symbol@LIEF@@UEAA@XZ
??1Symbol@MachO@LIEF@@UEAA@XZ
??1Symbol@PE@LIEF@@UEAA@XZ
??1SymbolCommand@MachO@LIEF@@UEAA@XZ
??1SymbolVersion@ELF@LIEF@@UEAA@XZ
??1SymbolVersionAux@ELF@LIEF@@UEAA@XZ
??1SymbolVersionAuxRequirement@ELF@LIEF@@UEAA@XZ
??1SymbolVersionDefinition@ELF@LIEF@@UEAA@XZ
??1SymbolVersionRequirement@ELF@LIEF@@UEAA@XZ
??1SysvHash@ELF@LIEF@@UEAA@XZ
??1TLS@PE@LIEF@@UEAA@XZ
??1ThreadCommand@MachO@LIEF@@UEAA@XZ
??1Type@DEX@LIEF@@UEAA@XZ
??1UUIDCommand@MachO@LIEF@@UEAA@XZ
??1VersionMin@MachO@LIEF@@UEAA@XZ
??1Visitor@LIEF@@UEAA@XZ
??1bad_file@LIEF@@UEAA@XZ
??1bad_format@LIEF@@UEAA@XZ
??1builder_error@LIEF@@UEAA@XZ
??1conversion_error@LIEF@@UEAA@XZ
??1corrupted@LIEF@@UEAA@XZ
??1exception@LIEF@@UEAA@XZ
??1forward_information_t@ExportEntry@PE@LIEF@@QEAA@XZ
??1integrity_error@LIEF@@UEAA@XZ
??1not_found@LIEF@@UEAA@XZ
??1not_implemented@LIEF@@UEAA@XZ
??1not_supported@LIEF@@UEAA@XZ
??1parser_error@LIEF@@UEAA@XZ
??1pe_bad_section_name@LIEF@@UEAA@XZ
??1pe_error@LIEF@@UEAA@XZ
??1read_out_of_bound@LIEF@@UEAA@XZ
??1type_error@LIEF@@UEAA@XZ
??1x509@PE@LIEF@@UEAA@XZ
??4AbstractHash@LIEF@@QEAAAEAV01@AEBV01@@Z
??4AndroidNote@ELF@LIEF@@QEAAAEAV012@AEBV012@@Z
??4Attribute@PE@LIEF@@QEAAAEAV012@AEBV012@@Z
??4AuxiliarySymbol@PE@LIEF@@QEAAAEAV012@$$QEAV012@@Z
??4AuxiliarySymbol@PE@LIEF@@QEAAAEAV012@AEBV012@@Z
??4Binary@LIEF@@QEAAAEAV01@AEBV01@@Z
??4BindingInfo@MachO@LIEF@@QEAAAEAV012@V012@@Z
??4BuildToolVersion@MachO@LIEF@@QEAAAEAV012@AEBV012@@Z
??4BuildVersion@MachO@LIEF@@QEAAAEAV012@AEBV012@@Z
??4Builder@MachO@LIEF@@QEAAAEAV012@AEBV012@@Z
??4Builder@PE@LIEF@@QEAAAEAV012@AEBV012@@Z
??4Class@OAT@LIEF@@QEAAAEAV012@AEBV012@@Z
??4CodeInfo@DEX@LIEF@@QEAAAEAV012@AEBV012@@Z
??4CodeIntegrity@PE@LIEF@@QEAAAEAV012@AEBV012@@Z
??4CodeSignature@MachO@LIEF@@QEAAAEAV012@AEBV012@@Z
??4CodeView@PE@LIEF@@QEAAAEAV012@AEBV012@@Z
??4CodeViewPDB@PE@LIEF@@QEAAAEAV012@AEBV012@@Z
??4ContentInfo@PE@LIEF@@QEAAAEAV012@AEBV012@@Z
??4ContentType@PE@LIEF@@QEAAAEAV012@AEBV012@@Z
??4CoreAuxv@ELF@LIEF@@QEAAAEAV012@AEBV012@@Z
??4CoreFile@ELF@LIEF@@QEAAAEAV012@AEBV012@@Z
??4CorePrPsInfo@ELF@LIEF@@QEAAAEAV012@AEBV012@@Z
??4CorePrStatus@ELF@LIEF@@QEAAAEAV012@AEBV012@@Z
??4CoreSigInfo@ELF@LIEF@@QEAAAEAV012@AEBV012@@Z
??4DataCodeEntry@MachO@LIEF@@QEAAAEAV012@AEBV012@@Z
??4DataDirectory@PE@LIEF@@QEAAAEAV012@V012@@Z
??4DataInCode@MachO@LIEF@@QEAAAEAV012@AEBV012@@Z
??4Debug@PE@LIEF@@QEAAAEAV012@V012@@Z
??4DelayImport@PE@LIEF@@QEAAAEAV012@$$QEAV012@@Z
??4DelayImport@PE@LIEF@@QEAAAEAV012@AEBV012@@Z
??4DelayImportEntry@PE@LIEF@@QEAAAEAV012@$$QEAV012@@Z
??4DelayImportEntry@PE@LIEF@@QEAAAEAV012@AEBV012@@Z
??4DexFile@OAT@LIEF@@QEAAAEAV012@AEBV012@@Z
??4DosHeader@PE@LIEF@@QEAAAEAV012@AEBV012@@Z
??4DyldEnvironment@MachO@LIEF@@QEAAAEAV012@AEBV012@@Z
??4DyldInfo@MachO@LIEF@@QEAAAEAV012@V012@@Z
??4DylibCommand@MachO@LIEF@@QEAAAEAV012@AEBV012@@Z
??4DylinkerCommand@MachO@LIEF@@QEAAAEAV012@AEBV012@@Z
??4DynamicEntry@ELF@LIEF@@QEAAAEAV012@AEBV012@@Z
??4DynamicEntryArray@ELF@LIEF@@QEAAAEAV012@AEBV012@@Z
??4DynamicEntryFlags@ELF@LIEF@@QEAAAEAV012@AEBV012@@Z
??4DynamicEntryLibrary@ELF@LIEF@@QEAAAEAV012@AEBV012@@Z
??4DynamicEntryRpath@ELF@LIEF@@QEAAAEAV012@AEBV012@@Z
??4DynamicEntryRunPath@ELF@LIEF@@QEAAAEAV012@AEBV012@@Z
??4DynamicSharedObject@ELF@LIEF@@QEAAAEAV012@AEBV012@@Z
??4DynamicSymbolCommand@MachO@LIEF@@QEAAAEAV012@AEBV012@@Z
??4EncryptionInfo@MachO@LIEF@@QEAAAEAV012@AEBV012@@Z
??4Export@PE@LIEF@@QEAAAEAV012@AEBV012@@Z
??4ExportEntry@PE@LIEF@@QEAAAEAV012@AEBV012@@Z
??4ExportInfo@MachO@LIEF@@QEAAAEAV012@V012@@Z
??4Field@DEX@LIEF@@QEAAAEAV012@AEBV012@@Z
??4FilesetCommand@MachO@LIEF@@QEAAAEAV012@V012@@Z
??4Function@LIEF@@QEAAAEAV01@AEBV01@@Z
??4FunctionStarts@MachO@LIEF@@QEAAAEAV012@AEBV012@@Z
??4GenericType@PE@LIEF@@QEAAAEAV012@AEBV012@@Z
??4GnuHash@ELF@LIEF@@QEAAAEAV012@$$QEAV012@@Z
??4GnuHash@ELF@LIEF@@QEAAAEAV012@AEBV012@@Z
??4Handler@DataHandler@ELF@LIEF@@QEAAAEAV0123@$$QEAV0123@@Z
??4Hash@ART@LIEF@@QEAAAEAV012@AEBV012@@Z
??4Hash@DEX@LIEF@@QEAAAEAV012@AEBV012@@Z
??4Hash@ELF@LIEF@@QEAAAEAV012@AEBV012@@Z
??4Hash@LIEF@@QEAAAEAV01@AEBV01@@Z
??4Hash@MachO@LIEF@@QEAAAEAV012@AEBV012@@Z
??4Hash@OAT@LIEF@@QEAAAEAV012@AEBV012@@Z
??4Hash@PE@LIEF@@QEAAAEAV012@AEBV012@@Z
??4Hash@VDEX@LIEF@@QEAAAEAV012@AEBV012@@Z
??4Header@ART@LIEF@@QEAAAEAV012@AEBV012@@Z
??4Header@DEX@LIEF@@QEAAAEAV012@AEBV012@@Z
??4Header@ELF@LIEF@@QEAAAEAV012@AEBV012@@Z
??4Header@LIEF@@QEAAAEAV01@AEBV01@@Z
??4Header@MachO@LIEF@@QEAAAEAV012@AEBV012@@Z
??4Header@OAT@LIEF@@QEAAAEAV012@AEBV012@@Z
??4Header@PE@LIEF@@QEAAAEAV012@AEBV012@@Z
??4Header@VDEX@LIEF@@QEAAAEAV012@AEBV012@@Z
??4Import@PE@LIEF@@QEAAAEAV012@V012@@Z
??4ImportEntry@PE@LIEF@@QEAAAEAV012@AEBV012@@Z
??4LangCodeItem@PE@LIEF@@QEAAAEAV012@AEBV012@@Z
??4LoadCommand@MachO@LIEF@@QEAAAEAV012@V012@@Z
??4LoadConfiguration@PE@LIEF@@QEAAAEAV012@AEBV012@@Z
??4LoadConfigurationV0@PE@LIEF@@QEAAAEAV012@AEBV012@@Z
??4LoadConfigurationV1@PE@LIEF@@QEAAAEAV012@AEBV012@@Z
??4LoadConfigurationV2@PE@LIEF@@QEAAAEAV012@AEBV012@@Z
??4LoadConfigurationV3@PE@LIEF@@QEAAAEAV012@AEBV012@@Z
??4LoadConfigurationV4@PE@LIEF@@QEAAAEAV012@AEBV012@@Z
??4LoadConfigurationV5@PE@LIEF@@QEAAAEAV012@AEBV012@@Z
??4LoadConfigurationV6@PE@LIEF@@QEAAAEAV012@AEBV012@@Z
??4LoadConfigurationV7@PE@LIEF@@QEAAAEAV012@AEBV012@@Z
??4MainCommand@MachO@LIEF@@QEAAAEAV012@AEBV012@@Z
??4MapItem@DEX@LIEF@@QEAAAEAV012@AEBV012@@Z
??4MapList@DEX@LIEF@@QEAAAEAV012@AEBV012@@Z
??4Method@DEX@LIEF@@QEAAAEAV012@AEBV012@@Z
??4Method@OAT@LIEF@@QEAAAEAV012@AEBV012@@Z
??4MsSpcNestedSignature@PE@LIEF@@QEAAAEAV012@AEBV012@@Z
??4MsSpcStatementType@PE@LIEF@@QEAAAEAV012@AEBV012@@Z
??4Node@DataHandler@ELF@LIEF@@QEAAAEAV0123@AEBV0123@@Z
??4Note@ELF@LIEF@@QEAAAEAV012@V012@@Z
??4NoteAbi@ELF@LIEF@@QEAAAEAV012@AEBV012@@Z
??4NoteDetails@ELF@LIEF@@QEAAAEAV012@AEBV012@@Z
??4Object@LIEF@@QEAAAEAV01@AEBV01@@Z
??4OptionalHeader@PE@LIEF@@QEAAAEAV012@AEBV012@@Z
??4PKCS9AtSequenceNumber@PE@LIEF@@QEAAAEAV012@AEBV012@@Z
??4PKCS9CounterSignature@PE@LIEF@@QEAAAEAV012@AEBV012@@Z
??4PKCS9MessageDigest@PE@LIEF@@QEAAAEAV012@AEBV012@@Z
??4PKCS9SigningTime@PE@LIEF@@QEAAAEAV012@AEBV012@@Z
??4Parser@LIEF@@QEAAAEAV01@AEBV01@@Z
??4ParserConfig@MachO@LIEF@@QEAAAEAU012@$$QEAU012@@Z
??4ParserConfig@MachO@LIEF@@QEAAAEAU012@AEBU012@@Z
??4Pogo@PE@LIEF@@QEAAAEAV012@AEBV012@@Z
??4PogoEntry@PE@LIEF@@QEAAAEAV012@AEBV012@@Z
??4Prototype@DEX@LIEF@@QEAAAEAV012@AEBV012@@Z
??4RPathCommand@MachO@LIEF@@QEAAAEAV012@AEBV012@@Z
??4Relocation@ELF@LIEF@@QEAAAEAV012@V012@@Z
??4Relocation@LIEF@@QEAAAEAV01@AEBV01@@Z
??4Relocation@MachO@LIEF@@QEAAAEAV012@AEBV012@@Z
??4Relocation@PE@LIEF@@QEAAAEAV012@V012@@Z
??4RelocationDyld@MachO@LIEF@@QEAAAEAV012@AEBV012@@Z
??4RelocationEntry@PE@LIEF@@QEAAAEAV012@V012@@Z
??4RelocationObject@MachO@LIEF@@QEAAAEAV012@V012@@Z
??4ResourceAccelerator@PE@LIEF@@QEAAAEAV012@AEBV012@@Z
??4ResourceData@PE@LIEF@@QEAAAEAV012@V012@@Z
??4ResourceDialog@PE@LIEF@@QEAAAEAV012@AEBV012@@Z
??4ResourceDialogItem@PE@LIEF@@QEAAAEAV012@AEBV012@@Z
??4ResourceDirectory@PE@LIEF@@QEAAAEAV012@V012@@Z
??4ResourceFixedFileInfo@PE@LIEF@@QEAAAEAV012@AEBV012@@Z
??4ResourceIcon@PE@LIEF@@QEAAAEAV012@AEBV012@@Z
??4ResourceNode@PE@LIEF@@QEAAAEAV012@$$QEAV012@@Z
??4ResourceNode@PE@LIEF@@QEAAAEAV012@AEBV012@@Z
??4ResourceStringFileInfo@PE@LIEF@@QEAAAEAV012@AEBV012@@Z
??4ResourceStringTable@PE@LIEF@@QEAAAEAV012@AEBV012@@Z
??4ResourceVarFileInfo@PE@LIEF@@QEAAAEAV012@AEBV012@@Z
??4ResourceVersion@PE@LIEF@@QEAAAEAV012@AEBV012@@Z
??4ResourcesManager@PE@LIEF@@QEAAAEAV012@AEBV012@@Z
??4RichEntry@PE@LIEF@@QEAAAEAV012@AEBV012@@Z
??4RichHeader@PE@LIEF@@QEAAAEAV012@AEBV012@@Z
??4RsaInfo@PE@LIEF@@QEAAAEAV012@V012@@Z
??4Section@ELF@LIEF@@QEAAAEAV012@V012@@Z
??4Section@LIEF@@QEAAAEAV01@AEBV01@@Z
??4Section@MachO@LIEF@@QEAAAEAV012@V012@@Z
??4Section@PE@LIEF@@QEAAAEAV012@AEBV012@@Z
??4Segment@ELF@LIEF@@QEAAAEAV012@$$QEAV012@@Z
??4Segment@ELF@LIEF@@QEAAAEAV012@V012@@Z
??4SegmentCommand@MachO@LIEF@@QEAAAEAV012@V012@@Z
??4SegmentSplitInfo@MachO@LIEF@@QEAAAEAV012@AEBV012@@Z
??4Signature@PE@LIEF@@QEAAAEAV012@$$QEAV012@@Z
??4Signature@PE@LIEF@@QEAAAEAV012@AEBV012@@Z
??4SignerInfo@PE@LIEF@@QEAAAEAV012@$$QEAV012@@Z
??4SignerInfo@PE@LIEF@@QEAAAEAV012@V012@@Z
??4SourceVersion@MachO@LIEF@@QEAAAEAV012@AEBV012@@Z
??4SpcSpOpusInfo@PE@LIEF@@QEAAAEAV012@AEBV012@@Z
??4SubFramework@MachO@LIEF@@QEAAAEAV012@AEBV012@@Z
??4Symbol@ELF@LIEF@@QEAAAEAV012@V012@@Z
??4Symbol@LIEF@@QEAAAEAV01@AEBV01@@Z
??4Symbol@MachO@LIEF@@QEAAAEAV012@V012@@Z
??4Symbol@PE@LIEF@@QEAAAEAV012@V012@@Z
??4SymbolCommand@MachO@LIEF@@QEAAAEAV012@AEBV012@@Z
??4SymbolVersion@ELF@LIEF@@QEAAAEAV012@AEBV012@@Z
??4SymbolVersionAux@ELF@LIEF@@QEAAAEAV012@AEBV012@@Z
??4SymbolVersionAuxRequirement@ELF@LIEF@@QEAAAEAV012@AEBV012@@Z
??4SymbolVersionDefinition@ELF@LIEF@@QEAAAEAV012@V012@@Z
??4SymbolVersionRequirement@ELF@LIEF@@QEAAAEAV012@V012@@Z
??4SysvHash@ELF@LIEF@@QEAAAEAV012@$$QEAV012@@Z
??4SysvHash@ELF@LIEF@@QEAAAEAV012@AEBV012@@Z
??4TLS@PE@LIEF@@QEAAAEAV012@V012@@Z
??4ThreadCommand@MachO@LIEF@@QEAAAEAV012@AEBV012@@Z
??4Type@DEX@LIEF@@QEAAAEAV012@AEBV012@@Z
??4UUIDCommand@MachO@LIEF@@QEAAAEAV012@AEBV012@@Z
??4VersionMin@MachO@LIEF@@QEAAAEAV012@AEBV012@@Z
??4Visitor@LIEF@@QEAAAEAV01@AEBV01@@Z
??4bad_file@LIEF@@QEAAAEAV01@$$QEAV01@@Z
??4bad_file@LIEF@@QEAAAEAV01@AEBV01@@Z
??4bad_format@LIEF@@QEAAAEAV01@$$QEAV01@@Z
??4bad_format@LIEF@@QEAAAEAV01@AEBV01@@Z
??4builder_error@LIEF@@QEAAAEAV01@$$QEAV01@@Z
??4builder_error@LIEF@@QEAAAEAV01@AEBV01@@Z
??4conversion_error@LIEF@@QEAAAEAV01@$$QEAV01@@Z
??4conversion_error@LIEF@@QEAAAEAV01@AEBV01@@Z
??4corrupted@LIEF@@QEAAAEAV01@$$QEAV01@@Z
??4corrupted@LIEF@@QEAAAEAV01@AEBV01@@Z
??4exception@LIEF@@QEAAAEAV01@AEBV01@@Z
??4forward_information_t@ExportEntry@PE@LIEF@@QEAAAEAU0123@$$QEAU0123@@Z
??4forward_information_t@ExportEntry@PE@LIEF@@QEAAAEAU0123@AEBU0123@@Z
??4integrity_error@LIEF@@QEAAAEAV01@$$QEAV01@@Z
??4integrity_error@LIEF@@QEAAAEAV01@AEBV01@@Z
??4not_found@LIEF@@QEAAAEAV01@$$QEAV01@@Z
??4not_found@LIEF@@QEAAAEAV01@AEBV01@@Z
??4not_implemented@LIEF@@QEAAAEAV01@$$QEAV01@@Z
??4not_implemented@LIEF@@QEAAAEAV01@AEBV01@@Z
??4not_supported@LIEF@@QEAAAEAV01@$$QEAV01@@Z
??4not_supported@LIEF@@QEAAAEAV01@AEBV01@@Z
??4parser_error@LIEF@@QEAAAEAV01@$$QEAV01@@Z
??4parser_error@LIEF@@QEAAAEAV01@AEBV01@@Z
??4pe_bad_section_name@LIEF@@QEAAAEAV01@$$QEAV01@@Z
??4pe_bad_section_name@LIEF@@QEAAAEAV01@AEBV01@@Z
??4pe_error@LIEF@@QEAAAEAV01@$$QEAV01@@Z
??4pe_error@LIEF@@QEAAAEAV01@AEBV01@@Z
??4read_out_of_bound@LIEF@@QEAAAEAV01@$$QEAV01@@Z
??4read_out_of_bound@LIEF@@QEAAAEAV01@AEBV01@@Z
??4type_error@LIEF@@QEAAAEAV01@$$QEAV01@@Z
??4type_error@LIEF@@QEAAAEAV01@AEBV01@@Z
??4x509@PE@LIEF@@QEAAAEAV012@V012@@Z
??6ART@LIEF@@YAAEAV?$basic_ostream@DU?$char_traits@D@std@@@std@@AEAV23@AEBVFile@01@@Z
??6ART@LIEF@@YAAEAV?$basic_ostream@DU?$char_traits@D@std@@@std@@AEAV23@AEBVHeader@01@@Z
??6DEX@LIEF@@YAAEAV?$basic_ostream@DU?$char_traits@D@std@@@std@@AEAV23@AEBVClass@01@@Z
??6DEX@LIEF@@YAAEAV?$basic_ostream@DU?$char_traits@D@std@@@std@@AEAV23@AEBVCodeInfo@01@@Z
??6DEX@LIEF@@YAAEAV?$basic_ostream@DU?$char_traits@D@std@@@std@@AEAV23@AEBVField@01@@Z
??6DEX@LIEF@@YAAEAV?$basic_ostream@DU?$char_traits@D@std@@@std@@AEAV23@AEBVFile@01@@Z
??6DEX@LIEF@@YAAEAV?$basic_ostream@DU?$char_traits@D@std@@@std@@AEAV23@AEBVHeader@01@@Z
??6DEX@LIEF@@YAAEAV?$basic_ostream@DU?$char_traits@D@std@@@std@@AEAV23@AEBVMapItem@01@@Z
??6DEX@LIEF@@YAAEAV?$basic_ostream@DU?$char_traits@D@std@@@std@@AEAV23@AEBVMapList@01@@Z
??6DEX@LIEF@@YAAEAV?$basic_ostream@DU?$char_traits@D@std@@@std@@AEAV23@AEBVMethod@01@@Z
??6DEX@LIEF@@YAAEAV?$basic_ostream@DU?$char_traits@D@std@@@std@@AEAV23@AEBVPrototype@01@@Z
??6DEX@LIEF@@YAAEAV?$basic_ostream@DU?$char_traits@D@std@@@std@@AEAV23@AEBVType@01@@Z
??6ELF@LIEF@@YAAEAV?$basic_ostream@DU?$char_traits@D@std@@@std@@AEAV23@AEBUCoreFileEntry@01@@Z
??6ELF@LIEF@@YAAEAV?$basic_ostream@DU?$char_traits@D@std@@@std@@AEAV23@AEBVAndroidNote@01@@Z
??6ELF@LIEF@@YAAEAV?$basic_ostream@DU?$char_traits@D@std@@@std@@AEAV23@AEBVCoreAuxv@01@@Z
??6ELF@LIEF@@YAAEAV?$basic_ostream@DU?$char_traits@D@std@@@std@@AEAV23@AEBVCoreFile@01@@Z
??6ELF@LIEF@@YAAEAV?$basic_ostream@DU?$char_traits@D@std@@@std@@AEAV23@AEBVCorePrPsInfo@01@@Z
??6ELF@LIEF@@YAAEAV?$basic_ostream@DU?$char_traits@D@std@@@std@@AEAV23@AEBVCorePrStatus@01@@Z
??6ELF@LIEF@@YAAEAV?$basic_ostream@DU?$char_traits@D@std@@@std@@AEAV23@AEBVCoreSigInfo@01@@Z
??6ELF@LIEF@@YAAEAV?$basic_ostream@DU?$char_traits@D@std@@@std@@AEAV23@AEBVDynamicEntry@01@@Z
??6ELF@LIEF@@YAAEAV?$basic_ostream@DU?$char_traits@D@std@@@std@@AEAV23@AEBVGnuHash@01@@Z
??6ELF@LIEF@@YAAEAV?$basic_ostream@DU?$char_traits@D@std@@@std@@AEAV23@AEBVHeader@01@@Z
??6ELF@LIEF@@YAAEAV?$basic_ostream@DU?$char_traits@D@std@@@std@@AEAV23@AEBVNote@01@@Z
??6ELF@LIEF@@YAAEAV?$basic_ostream@DU?$char_traits@D@std@@@std@@AEAV23@AEBVNoteAbi@01@@Z
??6ELF@LIEF@@YAAEAV?$basic_ostream@DU?$char_traits@D@std@@@std@@AEAV23@AEBVNoteDetails@01@@Z
??6ELF@LIEF@@YAAEAV?$basic_ostream@DU?$char_traits@D@std@@@std@@AEAV23@AEBVRelocation@01@@Z
??6ELF@LIEF@@YAAEAV?$basic_ostream@DU?$char_traits@D@std@@@std@@AEAV23@AEBVSection@01@@Z
??6ELF@LIEF@@YAAEAV?$basic_ostream@DU?$char_traits@D@std@@@std@@AEAV23@AEBVSegment@01@@Z
??6ELF@LIEF@@YAAEAV?$basic_ostream@DU?$char_traits@D@std@@@std@@AEAV23@AEBVSymbol@01@@Z
??6ELF@LIEF@@YAAEAV?$basic_ostream@DU?$char_traits@D@std@@@std@@AEAV23@AEBVSymbolVersion@01@@Z
??6ELF@LIEF@@YAAEAV?$basic_ostream@DU?$char_traits@D@std@@@std@@AEAV23@AEBVSymbolVersionAux@01@@Z
??6ELF@LIEF@@YAAEAV?$basic_ostream@DU?$char_traits@D@std@@@std@@AEAV23@AEBVSymbolVersionAuxRequirement@01@@Z
??6ELF@LIEF@@YAAEAV?$basic_ostream@DU?$char_traits@D@std@@@std@@AEAV23@AEBVSymbolVersionDefinition@01@@Z
??6ELF@LIEF@@YAAEAV?$basic_ostream@DU?$char_traits@D@std@@@std@@AEAV23@AEBVSymbolVersionRequirement@01@@Z
??6ELF@LIEF@@YAAEAV?$basic_ostream@DU?$char_traits@D@std@@@std@@AEAV23@AEBVSysvHash@01@@Z
??6LIEF@@YAAEAV?$basic_ostream@DU?$char_traits@D@std@@@std@@AEAV12@AEBVBinary@0@@Z
??6LIEF@@YAAEAV?$basic_ostream@DU?$char_traits@D@std@@@std@@AEAV12@AEBVFunction@0@@Z
??6LIEF@@YAAEAV?$basic_ostream@DU?$char_traits@D@std@@@std@@AEAV12@AEBVHeader@0@@Z
??6LIEF@@YAAEAV?$basic_ostream@DU?$char_traits@D@std@@@std@@AEAV12@AEBVRelocation@0@@Z
??6LIEF@@YAAEAV?$basic_ostream@DU?$char_traits@D@std@@@std@@AEAV12@AEBVSection@0@@Z
??6LIEF@@YAAEAV?$basic_ostream@DU?$char_traits@D@std@@@std@@AEAV12@AEBVSymbol@0@@Z
??6MachO@LIEF@@YAAEAV?$basic_ostream@DU?$char_traits@D@std@@@std@@AEAV23@AEBVBindingInfo@01@@Z
??6MachO@LIEF@@YAAEAV?$basic_ostream@DU?$char_traits@D@std@@@std@@AEAV23@AEBVBuildToolVersion@01@@Z
??6MachO@LIEF@@YAAEAV?$basic_ostream@DU?$char_traits@D@std@@@std@@AEAV23@AEBVDataCodeEntry@01@@Z
??6MachO@LIEF@@YAAEAV?$basic_ostream@DU?$char_traits@D@std@@@std@@AEAV23@AEBVExportInfo@01@@Z
??6MachO@LIEF@@YAAEAV?$basic_ostream@DU?$char_traits@D@std@@@std@@AEAV23@AEBVFatBinary@01@@Z
??6MachO@LIEF@@YAAEAV?$basic_ostream@DU?$char_traits@D@std@@@std@@AEAV23@AEBVHeader@01@@Z
??6MachO@LIEF@@YAAEAV?$basic_ostream@DU?$char_traits@D@std@@@std@@AEAV23@AEBVLoadCommand@01@@Z
??6MachO@LIEF@@YAAEAV?$basic_ostream@DU?$char_traits@D@std@@@std@@AEAV23@AEBVRelocation@01@@Z
??6MachO@LIEF@@YAAEAV?$basic_ostream@DU?$char_traits@D@std@@@std@@AEAV23@AEBVSection@01@@Z
??6MachO@LIEF@@YAAEAV?$basic_ostream@DU?$char_traits@D@std@@@std@@AEAV23@AEBVSymbol@01@@Z
??6OAT@LIEF@@YAAEAV?$basic_ostream@DU?$char_traits@D@std@@@std@@AEAV23@AEBVBinary@01@@Z
??6OAT@LIEF@@YAAEAV?$basic_ostream@DU?$char_traits@D@std@@@std@@AEAV23@AEBVClass@01@@Z
??6OAT@LIEF@@YAAEAV?$basic_ostream@DU?$char_traits@D@std@@@std@@AEAV23@AEBVDexFile@01@@Z
??6OAT@LIEF@@YAAEAV?$basic_ostream@DU?$char_traits@D@std@@@std@@AEAV23@AEBVHeader@01@@Z
??6OAT@LIEF@@YAAEAV?$basic_ostream@DU?$char_traits@D@std@@@std@@AEAV23@AEBVMethod@01@@Z
??6PE@LIEF@@YAAEAV?$basic_ostream@DU?$char_traits@D@std@@@std@@AEAV23@AEBUforward_information_t@ExportEntry@01@@Z
??6PE@LIEF@@YAAEAV?$basic_ostream@DU?$char_traits@D@std@@@std@@AEAV23@AEBVAttribute@01@@Z
??6PE@LIEF@@YAAEAV?$basic_ostream@DU?$char_traits@D@std@@@std@@AEAV23@AEBVBuilder@01@@Z
??6PE@LIEF@@YAAEAV?$basic_ostream@DU?$char_traits@D@std@@@std@@AEAV23@AEBVCodeIntegrity@01@@Z
??6PE@LIEF@@YAAEAV?$basic_ostream@DU?$char_traits@D@std@@@std@@AEAV23@AEBVCodeView@01@@Z
??6PE@LIEF@@YAAEAV?$basic_ostream@DU?$char_traits@D@std@@@std@@AEAV23@AEBVCodeViewPDB@01@@Z
??6PE@LIEF@@YAAEAV?$basic_ostream@DU?$char_traits@D@std@@@std@@AEAV23@AEBVContentInfo@01@@Z
??6PE@LIEF@@YAAEAV?$basic_ostream@DU?$char_traits@D@std@@@std@@AEAV23@AEBVDataDirectory@01@@Z
??6PE@LIEF@@YAAEAV?$basic_ostream@DU?$char_traits@D@std@@@std@@AEAV23@AEBVDebug@01@@Z
??6PE@LIEF@@YAAEAV?$basic_ostream@DU?$char_traits@D@std@@@std@@AEAV23@AEBVDelayImport@01@@Z
??6PE@LIEF@@YAAEAV?$basic_ostream@DU?$char_traits@D@std@@@std@@AEAV23@AEBVDelayImportEntry@01@@Z
??6PE@LIEF@@YAAEAV?$basic_ostream@DU?$char_traits@D@std@@@std@@AEAV23@AEBVDosHeader@01@@Z
??6PE@LIEF@@YAAEAV?$basic_ostream@DU?$char_traits@D@std@@@std@@AEAV23@AEBVExport@01@@Z
??6PE@LIEF@@YAAEAV?$basic_ostream@DU?$char_traits@D@std@@@std@@AEAV23@AEBVExportEntry@01@@Z
??6PE@LIEF@@YAAEAV?$basic_ostream@DU?$char_traits@D@std@@@std@@AEAV23@AEBVHeader@01@@Z
??6PE@LIEF@@YAAEAV?$basic_ostream@DU?$char_traits@D@std@@@std@@AEAV23@AEBVImport@01@@Z
??6PE@LIEF@@YAAEAV?$basic_ostream@DU?$char_traits@D@std@@@std@@AEAV23@AEBVImportEntry@01@@Z
??6PE@LIEF@@YAAEAV?$basic_ostream@DU?$char_traits@D@std@@@std@@AEAV23@AEBVLangCodeItem@01@@Z
??6PE@LIEF@@YAAEAV?$basic_ostream@DU?$char_traits@D@std@@@std@@AEAV23@AEBVLoadConfiguration@01@@Z
??6PE@LIEF@@YAAEAV?$basic_ostream@DU?$char_traits@D@std@@@std@@AEAV23@AEBVOptionalHeader@01@@Z
??6PE@LIEF@@YAAEAV?$basic_ostream@DU?$char_traits@D@std@@@std@@AEAV23@AEBVPogo@01@@Z
??6PE@LIEF@@YAAEAV?$basic_ostream@DU?$char_traits@D@std@@@std@@AEAV23@AEBVPogoEntry@01@@Z
??6PE@LIEF@@YAAEAV?$basic_ostream@DU?$char_traits@D@std@@@std@@AEAV23@AEBVRelocation@01@@Z
??6PE@LIEF@@YAAEAV?$basic_ostream@DU?$char_traits@D@std@@@std@@AEAV23@AEBVRelocationEntry@01@@Z
??6PE@LIEF@@YAAEAV?$basic_ostream@DU?$char_traits@D@std@@@std@@AEAV23@AEBVResourceAccelerator@01@@Z
??6PE@LIEF@@YAAEAV?$basic_ostream@DU?$char_traits@D@std@@@std@@AEAV23@AEBVResourceData@01@@Z
??6PE@LIEF@@YAAEAV?$basic_ostream@DU?$char_traits@D@std@@@std@@AEAV23@AEBVResourceDialog@01@@Z
??6PE@LIEF@@YAAEAV?$basic_ostream@DU?$char_traits@D@std@@@std@@AEAV23@AEBVResourceDialogItem@01@@Z
??6PE@LIEF@@YAAEAV?$basic_ostream@DU?$char_traits@D@std@@@std@@AEAV23@AEBVResourceDirectory@01@@Z
??6PE@LIEF@@YAAEAV?$basic_ostream@DU?$char_traits@D@std@@@std@@AEAV23@AEBVResourceFixedFileInfo@01@@Z
??6PE@LIEF@@YAAEAV?$basic_ostream@DU?$char_traits@D@std@@@std@@AEAV23@AEBVResourceIcon@01@@Z
??6PE@LIEF@@YAAEAV?$basic_ostream@DU?$char_traits@D@std@@@std@@AEAV23@AEBVResourceNode@01@@Z
??6PE@LIEF@@YAAEAV?$basic_ostream@DU?$char_traits@D@std@@@std@@AEAV23@AEBVResourceStringFileInfo@01@@Z
??6PE@LIEF@@YAAEAV?$basic_ostream@DU?$char_traits@D@std@@@std@@AEAV23@AEBVResourceStringTable@01@@Z
??6PE@LIEF@@YAAEAV?$basic_ostream@DU?$char_traits@D@std@@@std@@AEAV23@AEBVResourceVarFileInfo@01@@Z
??6PE@LIEF@@YAAEAV?$basic_ostream@DU?$char_traits@D@std@@@std@@AEAV23@AEBVResourceVersion@01@@Z
??6PE@LIEF@@YAAEAV?$basic_ostream@DU?$char_traits@D@std@@@std@@AEAV23@AEBVResourcesManager@01@@Z
??6PE@LIEF@@YAAEAV?$basic_ostream@DU?$char_traits@D@std@@@std@@AEAV23@AEBVRichEntry@01@@Z
??6PE@LIEF@@YAAEAV?$basic_ostream@DU?$char_traits@D@std@@@std@@AEAV23@AEBVRichHeader@01@@Z
??6PE@LIEF@@YAAEAV?$basic_ostream@DU?$char_traits@D@std@@@std@@AEAV23@AEBVRsaInfo@01@@Z
??6PE@LIEF@@YAAEAV?$basic_ostream@DU?$char_traits@D@std@@@std@@AEAV23@AEBVSection@01@@Z
??6PE@LIEF@@YAAEAV?$basic_ostream@DU?$char_traits@D@std@@@std@@AEAV23@AEBVSignature@01@@Z
??6PE@LIEF@@YAAEAV?$basic_ostream@DU?$char_traits@D@std@@@std@@AEAV23@AEBVSignerInfo@01@@Z
??6PE@LIEF@@YAAEAV?$basic_ostream@DU?$char_traits@D@std@@@std@@AEAV23@AEBVSymbol@01@@Z
??6PE@LIEF@@YAAEAV?$basic_ostream@DU?$char_traits@D@std@@@std@@AEAV23@AEBVTLS@01@@Z
??6PE@LIEF@@YAAEAV?$basic_ostream@DU?$char_traits@D@std@@@std@@AEAV23@AEBVx509@01@@Z
??6VDEX@LIEF@@YAAEAV?$basic_ostream@DU?$char_traits@D@std@@@std@@AEAV23@AEBVFile@01@@Z
??6VDEX@LIEF@@YAAEAV?$basic_ostream@DU?$char_traits@D@std@@@std@@AEAV23@AEBVHeader@01@@Z
??8AndroidNote@ELF@LIEF@@QEBA_NAEBV012@@Z
??8Binary@ELF@LIEF@@QEBA_NAEBV012@@Z
??8Binary@OAT@LIEF@@QEBA_NAEBV012@@Z
??8Binary@PE@LIEF@@QEBA_NAEBV012@@Z
??8BindingInfo@MachO@LIEF@@QEBA_NAEBV012@@Z
??8BuildToolVersion@MachO@LIEF@@QEBA_NAEBV012@@Z
??8BuildVersion@MachO@LIEF@@QEBA_NAEBV012@@Z
??8Class@DEX@LIEF@@QEBA_NAEBV012@@Z
??8Class@OAT@LIEF@@QEBA_NAEBV012@@Z
??8CodeInfo@DEX@LIEF@@QEBA_NAEBV012@@Z
??8CodeIntegrity@PE@LIEF@@QEBA_NAEBV012@@Z
??8CodeSignature@MachO@LIEF@@QEBA_NAEBV012@@Z
??8CodeView@PE@LIEF@@QEBA_NAEBV012@@Z
??8CodeViewPDB@PE@LIEF@@QEBA_NAEBV012@@Z
??8CoreAuxv@ELF@LIEF@@QEBA_NAEBV012@@Z
??8CoreFile@ELF@LIEF@@QEBA_NAEBV012@@Z
??8CorePrPsInfo@ELF@LIEF@@QEBA_NAEBV012@@Z
??8CorePrStatus@ELF@LIEF@@QEBA_NAEBV012@@Z
??8CoreSigInfo@ELF@LIEF@@QEBA_NAEBV012@@Z
??8DataCodeEntry@MachO@LIEF@@QEBA_NAEBV012@@Z
??8DataDirectory@PE@LIEF@@QEBA_NAEBV012@@Z
??8DataInCode@MachO@LIEF@@QEBA_NAEBV012@@Z
??8Debug@PE@LIEF@@QEBA_NAEBV012@@Z
??8DelayImport@PE@LIEF@@QEBA_NAEBV012@@Z
??8DelayImportEntry@PE@LIEF@@QEBA_NAEBV012@@Z
??8DexFile@OAT@LIEF@@QEBA_NAEBV012@@Z
??8DosHeader@PE@LIEF@@QEBA_NAEBV012@@Z
??8DyldEnvironment@MachO@LIEF@@QEBA_NAEBV012@@Z
??8DyldInfo@MachO@LIEF@@QEBA_NAEBV012@@Z
??8DylibCommand@MachO@LIEF@@QEBA_NAEBV012@@Z
??8DylinkerCommand@MachO@LIEF@@QEBA_NAEBV012@@Z
??8DynamicEntry@ELF@LIEF@@QEBA_NAEBV012@@Z
??8DynamicSymbolCommand@MachO@LIEF@@QEBA_NAEBV012@@Z
??8EncryptionInfo@MachO@LIEF@@QEBA_NAEBV012@@Z
??8Export@PE@LIEF@@QEBA_NAEBV012@@Z
??8ExportEntry@PE@LIEF@@QEBA_NAEBV012@@Z
??8ExportInfo@MachO@LIEF@@QEBA_NAEBV012@@Z
??8Field@DEX@LIEF@@QEBA_NAEBV012@@Z
??8File@ART@LIEF@@QEBA_NAEBV012@@Z
??8File@DEX@LIEF@@QEBA_NAEBV012@@Z
??8File@VDEX@LIEF@@QEBA_NAEBV012@@Z
??8FilesetCommand@MachO@LIEF@@QEBA_NAEBV012@@Z
??8FunctionStarts@MachO@LIEF@@QEBA_NAEBV012@@Z
??8GnuHash@ELF@LIEF@@QEBA_NAEBV012@@Z
??8Header@ART@LIEF@@QEBA_NAEBV012@@Z
??8Header@DEX@LIEF@@QEBA_NAEBV012@@Z
??8Header@ELF@LIEF@@QEBA_NAEBV012@@Z
??8Header@MachO@LIEF@@QEBA_NAEBV012@@Z
??8Header@OAT@LIEF@@QEBA_NAEBV012@@Z
??8Header@PE@LIEF@@QEBA_NAEBV012@@Z
??8Header@VDEX@LIEF@@QEBA_NAEBV012@@Z
??8Import@PE@LIEF@@QEBA_NAEBV012@@Z
??8ImportEntry@PE@LIEF@@QEBA_NAEBV012@@Z
??8LangCodeItem@PE@LIEF@@QEBA_NAEBV012@@Z
??8LoadCommand@MachO@LIEF@@QEBA_NAEBV012@@Z
??8LoadConfiguration@PE@LIEF@@QEBA_NAEBV012@@Z
??8LoadConfigurationV0@PE@LIEF@@QEBA_NAEBV012@@Z
??8LoadConfigurationV1@PE@LIEF@@QEBA_NAEBV012@@Z
??8LoadConfigurationV2@PE@LIEF@@QEBA_NAEBV012@@Z
??8LoadConfigurationV3@PE@LIEF@@QEBA_NAEBV012@@Z
??8LoadConfigurationV4@PE@LIEF@@QEBA_NAEBV012@@Z
??8LoadConfigurationV5@PE@LIEF@@QEBA_NAEBV012@@Z
??8LoadConfigurationV6@PE@LIEF@@QEBA_NAEBV012@@Z
??8LoadConfigurationV7@PE@LIEF@@QEBA_NAEBV012@@Z
??8MainCommand@MachO@LIEF@@QEBA_NAEBV012@@Z
??8MapItem@DEX@LIEF@@QEBA_NAEBV012@@Z
??8MapList@DEX@LIEF@@QEBA_NAEBV012@@Z
??8Method@DEX@LIEF@@QEBA_NAEBV012@@Z
??8Method@OAT@LIEF@@QEBA_NAEBV012@@Z
??8Node@DataHandler@ELF@LIEF@@QEBA_NAEBV0123@@Z
??8Note@ELF@LIEF@@QEBA_NAEBV012@@Z
??8NoteAbi@ELF@LIEF@@QEBA_NAEBV012@@Z
??8NoteDetails@ELF@LIEF@@QEBA_NAEBV012@@Z
??8OptionalHeader@PE@LIEF@@QEBA_NAEBV012@@Z
??8Pogo@PE@LIEF@@QEBA_NAEBV012@@Z
??8PogoEntry@PE@LIEF@@QEBA_NAEBV012@@Z
??8Prototype@DEX@LIEF@@QEBA_NAEBV012@@Z
??8RPathCommand@MachO@LIEF@@QEBA_NAEBV012@@Z
??8Relocation@ELF@LIEF@@QEBA_NAEBV012@@Z
??8Relocation@LIEF@@QEBA_NAEBV01@@Z
??8Relocation@MachO@LIEF@@QEBA_NAEBV012@@Z
??8Relocation@PE@LIEF@@QEBA_NAEBV012@@Z
??8RelocationDyld@MachO@LIEF@@QEBA_NAEBV012@@Z
??8RelocationEntry@PE@LIEF@@QEBA_NAEBV012@@Z
??8RelocationObject@MachO@LIEF@@QEBA_NAEBV012@@Z
??8ResourceAccelerator@PE@LIEF@@QEBA_NAEBV012@@Z
??8ResourceData@PE@LIEF@@QEBA_NAEBV012@@Z
??8ResourceDialog@PE@LIEF@@QEBA_NAEBV012@@Z
??8ResourceDialogItem@PE@LIEF@@QEBA_NAEBV012@@Z
??8ResourceDirectory@PE@LIEF@@QEBA_NAEBV012@@Z
??8ResourceFixedFileInfo@PE@LIEF@@QEBA_NAEBV012@@Z
??8ResourceIcon@PE@LIEF@@QEBA_NAEBV012@@Z
??8ResourceNode@PE@LIEF@@QEBA_NAEBV012@@Z
??8ResourceStringFileInfo@PE@LIEF@@QEBA_NAEBV012@@Z
??8ResourceStringTable@PE@LIEF@@QEBA_NAEBV012@@Z
??8ResourceVarFileInfo@PE@LIEF@@QEBA_NAEBV012@@Z
??8ResourceVersion@PE@LIEF@@QEBA_NAEBV012@@Z
??8ResourcesManager@PE@LIEF@@QEBA_NAEBV012@@Z
??8RichEntry@PE@LIEF@@QEBA_NAEBV012@@Z
??8RichHeader@PE@LIEF@@QEBA_NAEBV012@@Z
??8Section@ELF@LIEF@@QEBA_NAEBV012@@Z
??8Section@LIEF@@QEBA_NAEBV01@@Z
??8Section@MachO@LIEF@@QEBA_NAEBV012@@Z
??8Section@PE@LIEF@@QEBA_NAEBV012@@Z
??8Segment@ELF@LIEF@@QEBA_NAEBV012@@Z
??8SegmentCommand@MachO@LIEF@@QEBA_NAEBV012@@Z
??8SegmentSplitInfo@MachO@LIEF@@QEBA_NAEBV012@@Z
??8SourceVersion@MachO@LIEF@@QEBA_NAEBV012@@Z
??8SubFramework@MachO@LIEF@@QEBA_NAEBV012@@Z
??8Symbol@ELF@LIEF@@QEBA_NAEBV012@@Z
??8Symbol@MachO@LIEF@@QEBA_NAEBV012@@Z
??8Symbol@PE@LIEF@@QEBA_NAEBV012@@Z
??8SymbolCommand@MachO@LIEF@@QEBA_NAEBV012@@Z
??8SymbolVersion@ELF@LIEF@@QEBA_NAEBV012@@Z
??8SymbolVersionAux@ELF@LIEF@@QEBA_NAEBV012@@Z
??8SymbolVersionAuxRequirement@ELF@LIEF@@QEBA_NAEBV012@@Z
??8SymbolVersionDefinition@ELF@LIEF@@QEBA_NAEBV012@@Z
??8SymbolVersionRequirement@ELF@LIEF@@QEBA_NAEBV012@@Z
??8SysvHash@ELF@LIEF@@QEBA_NAEBV012@@Z
??8TLS@PE@LIEF@@QEBA_NAEBV012@@Z
??8ThreadCommand@MachO@LIEF@@QEBA_NAEBV012@@Z
??8Type@DEX@LIEF@@QEBA_NAEBV012@@Z
??8UUIDCommand@MachO@LIEF@@QEBA_NAEBV012@@Z
??8VersionMin@MachO@LIEF@@QEBA_NAEBV012@@Z
??9AndroidNote@ELF@LIEF@@QEBA_NAEBV012@@Z
??9Binary@ELF@LIEF@@QEBA_NAEBV012@@Z
??9Binary@OAT@LIEF@@QEBA_NAEBV012@@Z
??9Binary@PE@LIEF@@QEBA_NAEBV012@@Z
??9BindingInfo@MachO@LIEF@@QEBA_NAEBV012@@Z
??9BuildToolVersion@MachO@LIEF@@QEBA_NAEBV012@@Z
??9BuildVersion@MachO@LIEF@@QEBA_NAEBV012@@Z
??9Class@DEX@LIEF@@QEBA_NAEBV012@@Z
??9Class@OAT@LIEF@@QEBA_NAEBV012@@Z
??9CodeInfo@DEX@LIEF@@QEBA_NAEBV012@@Z
??9CodeIntegrity@PE@LIEF@@QEBA_NAEBV012@@Z
??9CodeSignature@MachO@LIEF@@QEBA_NAEBV012@@Z
??9CodeView@PE@LIEF@@QEBA_NAEBV012@@Z
??9CodeViewPDB@PE@LIEF@@QEBA_NAEBV012@@Z
??9CoreAuxv@ELF@LIEF@@QEBA_NAEBV012@@Z
??9CoreFile@ELF@LIEF@@QEBA_NAEBV012@@Z
??9CorePrPsInfo@ELF@LIEF@@QEBA_NAEBV012@@Z
??9CorePrStatus@ELF@LIEF@@QEBA_NAEBV012@@Z
??9CoreSigInfo@ELF@LIEF@@QEBA_NAEBV012@@Z
??9DataCodeEntry@MachO@LIEF@@QEBA_NAEBV012@@Z
??9DataDirectory@PE@LIEF@@QEBA_NAEBV012@@Z
??9DataInCode@MachO@LIEF@@QEBA_NAEBV012@@Z
??9Debug@PE@LIEF@@QEBA_NAEBV012@@Z
??9DelayImport@PE@LIEF@@QEBA_NAEBV012@@Z
??9DelayImportEntry@PE@LIEF@@QEBA_NAEBV012@@Z
??9DexFile@OAT@LIEF@@QEBA_NAEBV012@@Z
??9DosHeader@PE@LIEF@@QEBA_NAEBV012@@Z
??9DyldEnvironment@MachO@LIEF@@QEBA_NAEBV012@@Z
??9DyldInfo@MachO@LIEF@@QEBA_NAEBV012@@Z
??9DylibCommand@MachO@LIEF@@QEBA_NAEBV012@@Z
??9DylinkerCommand@MachO@LIEF@@QEBA_NAEBV012@@Z
??9DynamicEntry@ELF@LIEF@@QEBA_NAEBV012@@Z
??9DynamicSymbolCommand@MachO@LIEF@@QEBA_NAEBV012@@Z
??9EncryptionInfo@MachO@LIEF@@QEBA_NAEBV012@@Z
??9Export@PE@LIEF@@QEBA_NAEBV012@@Z
??9ExportEntry@PE@LIEF@@QEBA_NAEBV012@@Z
??9ExportInfo@MachO@LIEF@@QEBA_NAEBV012@@Z
??9Field@DEX@LIEF@@QEBA_NAEBV012@@Z
??9File@ART@LIEF@@QEBA_NAEBV012@@Z
??9File@DEX@LIEF@@QEBA_NAEBV012@@Z
??9File@VDEX@LIEF@@QEBA_NAEBV012@@Z
??9FilesetCommand@MachO@LIEF@@QEBA_NAEBV012@@Z
??9FunctionStarts@MachO@LIEF@@QEBA_NAEBV012@@Z
??9GnuHash@ELF@LIEF@@QEBA_NAEBV012@@Z
??9Header@ART@LIEF@@QEBA_NAEBV012@@Z
??9Header@DEX@LIEF@@QEBA_NAEBV012@@Z
??9Header@ELF@LIEF@@QEBA_NAEBV012@@Z
??9Header@MachO@LIEF@@QEBA_NAEBV012@@Z
??9Header@OAT@LIEF@@QEBA_NAEBV012@@Z
??9Header@PE@LIEF@@QEBA_NAEBV012@@Z
??9Header@VDEX@LIEF@@QEBA_NAEBV012@@Z
??9Import@PE@LIEF@@QEBA_NAEBV012@@Z
??9ImportEntry@PE@LIEF@@QEBA_NAEBV012@@Z
??9LangCodeItem@PE@LIEF@@QEBA_NAEBV012@@Z
??9LoadCommand@MachO@LIEF@@QEBA_NAEBV012@@Z
??9LoadConfiguration@PE@LIEF@@QEBA_NAEBV012@@Z
??9LoadConfigurationV0@PE@LIEF@@QEBA_NAEBV012@@Z
??9LoadConfigurationV1@PE@LIEF@@QEBA_NAEBV012@@Z
??9LoadConfigurationV2@PE@LIEF@@QEBA_NAEBV012@@Z
??9LoadConfigurationV3@PE@LIEF@@QEBA_NAEBV012@@Z
??9LoadConfigurationV4@PE@LIEF@@QEBA_NAEBV012@@Z
??9LoadConfigurationV5@PE@LIEF@@QEBA_NAEBV012@@Z
??9LoadConfigurationV6@PE@LIEF@@QEBA_NAEBV012@@Z
??9LoadConfigurationV7@PE@LIEF@@QEBA_NAEBV012@@Z
??9MainCommand@MachO@LIEF@@QEBA_NAEBV012@@Z
??9MapItem@DEX@LIEF@@QEBA_NAEBV012@@Z
??9MapList@DEX@LIEF@@QEBA_NAEBV012@@Z
??9Method@DEX@LIEF@@QEBA_NAEBV012@@Z
??9Method@OAT@LIEF@@QEBA_NAEBV012@@Z
??9Node@DataHandler@ELF@LIEF@@QEBA_NAEBV0123@@Z
??9Note@ELF@LIEF@@QEBA_NAEBV012@@Z
??9NoteAbi@ELF@LIEF@@QEBA_NAEBV012@@Z
??9NoteDetails@ELF@LIEF@@QEBA_NAEBV012@@Z
??9OptionalHeader@PE@LIEF@@QEBA_NAEBV012@@Z
??9Pogo@PE@LIEF@@QEBA_NAEBV012@@Z
??9PogoEntry@PE@LIEF@@QEBA_NAEBV012@@Z
??9Prototype@DEX@LIEF@@QEBA_NAEBV012@@Z
??9RPathCommand@MachO@LIEF@@QEBA_NAEBV012@@Z
??9Relocation@ELF@LIEF@@QEBA_NAEBV012@@Z
??9Relocation@LIEF@@QEBA_NAEBV01@@Z
??9Relocation@MachO@LIEF@@QEBA_NAEBV012@@Z
??9Relocation@PE@LIEF@@QEBA_NAEBV012@@Z
??9RelocationDyld@MachO@LIEF@@QEBA_NAEBV012@@Z
??9RelocationEntry@PE@LIEF@@QEBA_NAEBV012@@Z
??9RelocationObject@MachO@LIEF@@QEBA_NAEBV012@@Z
??9ResourceAccelerator@PE@LIEF@@QEBA_NAEBV012@@Z
??9ResourceData@PE@LIEF@@QEBA_NAEBV012@@Z
??9ResourceDialog@PE@LIEF@@QEBA_NAEBV012@@Z
??9ResourceDialogItem@PE@LIEF@@QEBA_NAEBV012@@Z
??9ResourceDirectory@PE@LIEF@@QEBA_NAEBV012@@Z
??9ResourceFixedFileInfo@PE@LIEF@@QEBA_NAEBV012@@Z
??9ResourceIcon@PE@LIEF@@QEBA_NAEBV012@@Z
??9ResourceNode@PE@LIEF@@QEBA_NAEBV012@@Z
??9ResourceStringFileInfo@PE@LIEF@@QEBA_NAEBV012@@Z
??9ResourceStringTable@PE@LIEF@@QEBA_NAEBV012@@Z
??9ResourceVarFileInfo@PE@LIEF@@QEBA_NAEBV012@@Z
??9ResourceVersion@PE@LIEF@@QEBA_NAEBV012@@Z
??9ResourcesManager@PE@LIEF@@QEBA_NAEBV012@@Z
??9RichEntry@PE@LIEF@@QEBA_NAEBV012@@Z
??9RichHeader@PE@LIEF@@QEBA_NAEBV012@@Z
??9Section@ELF@LIEF@@QEBA_NAEBV012@@Z
??9Section@LIEF@@QEBA_NAEBV01@@Z
??9Section@MachO@LIEF@@QEBA_NAEBV012@@Z
??9Section@PE@LIEF@@QEBA_NAEBV012@@Z
??9Segment@ELF@LIEF@@QEBA_NAEBV012@@Z
??9SegmentCommand@MachO@LIEF@@QEBA_NAEBV012@@Z
??9SegmentSplitInfo@MachO@LIEF@@QEBA_NAEBV012@@Z
??9SourceVersion@MachO@LIEF@@QEBA_NAEBV012@@Z
??9SubFramework@MachO@LIEF@@QEBA_NAEBV012@@Z
??9Symbol@ELF@LIEF@@QEBA_NAEBV012@@Z
??9Symbol@MachO@LIEF@@QEBA_NAEBV012@@Z
??9Symbol@PE@LIEF@@QEBA_NAEBV012@@Z
??9SymbolCommand@MachO@LIEF@@QEBA_NAEBV012@@Z
??9SymbolVersion@ELF@LIEF@@QEBA_NAEBV012@@Z
??9SymbolVersionAux@ELF@LIEF@@QEBA_NAEBV012@@Z
??9SymbolVersionAuxRequirement@ELF@LIEF@@QEBA_NAEBV012@@Z
??9SymbolVersionDefinition@ELF@LIEF@@QEBA_NAEBV012@@Z
??9SymbolVersionRequirement@ELF@LIEF@@QEBA_NAEBV012@@Z
??9SysvHash@ELF@LIEF@@QEBA_NAEBV012@@Z
??9TLS@PE@LIEF@@QEBA_NAEBV012@@Z
??9ThreadCommand@MachO@LIEF@@QEBA_NAEBV012@@Z
??9Type@DEX@LIEF@@QEBA_NAEBV012@@Z
??9UUIDCommand@MachO@LIEF@@QEBA_NAEBV012@@Z
??9VersionMin@MachO@LIEF@@QEBA_NAEBV012@@Z
??ABinary@ELF@LIEF@@QEAAPEAVDynamicEntry@12@W4DYNAMIC_TAGS@12@@Z
??ABinary@ELF@LIEF@@QEAAPEAVNote@12@W4NOTE_TYPES@12@@Z
??ABinary@ELF@LIEF@@QEAAPEAVSection@12@W4ELF_SECTION_TYPES@12@@Z
??ABinary@ELF@LIEF@@QEAAPEAVSegment@12@W4SEGMENT_TYPES@12@@Z
??ABinary@ELF@LIEF@@QEBAPEBVDynamicEntry@12@W4DYNAMIC_TAGS@12@@Z
??ABinary@ELF@LIEF@@QEBAPEBVNote@12@W4NOTE_TYPES@12@@Z
??ABinary@ELF@LIEF@@QEBAPEBVSection@12@W4ELF_SECTION_TYPES@12@@Z
??ABinary@ELF@LIEF@@QEBAPEBVSegment@12@W4SEGMENT_TYPES@12@@Z
??ABinary@MachO@LIEF@@QEAAPEAVLoadCommand@12@W4LOAD_COMMAND_TYPES@12@@Z
??ABinary@MachO@LIEF@@QEBAPEBVLoadCommand@12@W4LOAD_COMMAND_TYPES@12@@Z
??ACoreAuxv@ELF@LIEF@@QEAAAEA_KW4AUX_TYPE@12@@Z
??ACorePrStatus@ELF@LIEF@@QEAAAEA_KW4REGISTERS@012@@Z
??ADynamicEntryArray@ELF@LIEF@@QEAAAEA_K_K@Z
??ADynamicEntryArray@ELF@LIEF@@QEBAAEB_K_K@Z
??AFatBinary@MachO@LIEF@@QEAAPEAVBinary@12@_K@Z
??AFatBinary@MachO@LIEF@@QEBAPEBVBinary@12@_K@Z
??AHeader@OAT@LIEF@@QEAAPEAV?$basic_string@DU?$char_traits@D@std@@V?$allocator@D@2@@std@@W4HEADER_KEYS@12@@Z
??AHeader@OAT@LIEF@@QEBAPEBV?$basic_string@DU?$char_traits@D@std@@V?$allocator@D@2@@std@@W4HEADER_KEYS@12@@Z
??AMapList@DEX@LIEF@@QEAAAEAVMapItem@12@W4TYPES@312@@Z
??AMapList@DEX@LIEF@@QEBAAEBVMapItem@12@W4TYPES@312@@Z
??BRsaInfo@PE@LIEF@@QEBA_NXZ
??Bforward_information_t@ExportEntry@PE@LIEF@@QEBA_NXZ
??MNode@DataHandler@ELF@LIEF@@QEBA_NAEBV0123@@Z
??MRelocation@LIEF@@UEBA_NAEBV01@@Z
??MRelocationDyld@MachO@LIEF@@QEBA_NAEBV012@@Z
??NNode@DataHandler@ELF@LIEF@@QEBA_NAEBV0123@@Z
??NRelocation@LIEF@@UEBA_NAEBV01@@Z
??NRelocationDyld@MachO@LIEF@@QEBA_NAEBV012@@Z
??ONode@DataHandler@ELF@LIEF@@QEBA_NAEBV0123@@Z
??ORelocation@LIEF@@UEBA_NAEBV01@@Z
??ORelocationDyld@MachO@LIEF@@QEBA_NAEBV012@@Z
??PNode@DataHandler@ELF@LIEF@@QEBA_NAEBV0123@@Z
??PRelocation@LIEF@@UEBA_NAEBV01@@Z
??PRelocationDyld@MachO@LIEF@@QEBA_NAEBV012@@Z
??RVisitor@LIEF@@UEAAXXZ
??YBinary@ELF@LIEF@@QEAAAEAV012@AEBVDynamicEntry@12@@Z
??YBinary@ELF@LIEF@@QEAAAEAV012@AEBVNote@12@@Z
??YBinary@ELF@LIEF@@QEAAAEAV012@AEBVSection@12@@Z
??YBinary@ELF@LIEF@@QEAAAEAV012@AEBVSegment@12@@Z
??YDynamicEntryArray@ELF@LIEF@@QEAAAEAV012@_K@Z
??YDynamicEntryFlags@ELF@LIEF@@QEAAAEAV012@W4DYNAMIC_FLAGS@12@@Z
??YDynamicEntryFlags@ELF@LIEF@@QEAAAEAV012@W4DYNAMIC_FLAGS_1@12@@Z
??YDynamicEntryRpath@ELF@LIEF@@QEAAAEAV012@AEBV?$basic_string@DU?$char_traits@D@std@@V?$allocator@D@2@@std@@@Z
??YDynamicEntryRunPath@ELF@LIEF@@QEAAAEAV012@AEBV?$basic_string@DU?$char_traits@D@std@@V?$allocator@D@2@@std@@@Z
??YHeader@MachO@LIEF@@QEAAAEAV012@W4HEADER_FLAGS@12@@Z
??YOptionalHeader@PE@LIEF@@QEAAAEAV012@W4DLL_CHARACTERISTICS@12@@Z
??YSection@ELF@LIEF@@QEAAAEAV012@W4ELF_SECTION_FLAGS@12@@Z
??YSection@MachO@LIEF@@QEAAAEAV012@W4MACHO_SECTION_FLAGS@12@@Z
??YSegment@ELF@LIEF@@QEAAAEAV012@W4ELF_SEGMENT_FLAGS@12@@Z
??ZBinary@ELF@LIEF@@QEAAAEAV012@AEBVDynamicEntry@12@@Z
??ZBinary@ELF@LIEF@@QEAAAEAV012@AEBVNote@12@@Z
??ZBinary@ELF@LIEF@@QEAAAEAV012@W4DYNAMIC_TAGS@12@@Z
??ZBinary@ELF@LIEF@@QEAAAEAV012@W4NOTE_TYPES@12@@Z
??ZDynamicEntryArray@ELF@LIEF@@QEAAAEAV012@_K@Z
??ZDynamicEntryFlags@ELF@LIEF@@QEAAAEAV012@W4DYNAMIC_FLAGS@12@@Z
??ZDynamicEntryFlags@ELF@LIEF@@QEAAAEAV012@W4DYNAMIC_FLAGS_1@12@@Z
??ZDynamicEntryRpath@ELF@LIEF@@QEAAAEAV012@AEBV?$basic_string@DU?$char_traits@D@std@@V?$allocator@D@2@@std@@@Z
??ZDynamicEntryRunPath@ELF@LIEF@@QEAAAEAV012@AEBV?$basic_string@DU?$char_traits@D@std@@V?$allocator@D@2@@std@@@Z
??ZHeader@MachO@LIEF@@QEAAAEAV012@W4HEADER_FLAGS@12@@Z
??ZOptionalHeader@PE@LIEF@@QEAAAEAV012@W4DLL_CHARACTERISTICS@12@@Z
??ZSection@ELF@LIEF@@QEAAAEAV012@W4ELF_SECTION_FLAGS@12@@Z
??ZSection@MachO@LIEF@@QEAAAEAV012@W4MACHO_SECTION_FLAGS@12@@Z
??ZSegment@ELF@LIEF@@QEAAAEAV012@W4ELF_SEGMENT_FLAGS@12@@Z
??_7AbstractHash@LIEF@@6B@
??_7AndroidNote@ELF@LIEF@@6B@
??_7Attribute@PE@LIEF@@6B@
??_7Binary@ELF@LIEF@@6B@
??_7Binary@LIEF@@6B@
??_7Binary@MachO@LIEF@@6B@
??_7Binary@OAT@LIEF@@6B@
??_7Binary@PE@LIEF@@6B@
??_7BindingInfo@MachO@LIEF@@6B@
??_7BuildToolVersion@MachO@LIEF@@6B@
??_7BuildVersion@MachO@LIEF@@6B@
??_7Class@DEX@LIEF@@6B@
??_7Class@OAT@LIEF@@6B@
??_7CodeInfo@DEX@LIEF@@6B@
??_7CodeIntegrity@PE@LIEF@@6B@
??_7CodeSignature@MachO@LIEF@@6B@
??_7CodeView@PE@LIEF@@6B@
??_7CodeViewPDB@PE@LIEF@@6B@
??_7ContentInfo@PE@LIEF@@6B@
??_7ContentType@PE@LIEF@@6B@
??_7CoreAuxv@ELF@LIEF@@6B@
??_7CoreFile@ELF@LIEF@@6B@
??_7CorePrPsInfo@ELF@LIEF@@6B@
??_7CorePrStatus@ELF@LIEF@@6B@
??_7CoreSigInfo@ELF@LIEF@@6B@
??_7DataCodeEntry@MachO@LIEF@@6B@
??_7DataDirectory@PE@LIEF@@6B@
??_7DataInCode@MachO@LIEF@@6B@
??_7Debug@PE@LIEF@@6B@
??_7DelayImport@PE@LIEF@@6B@
??_7DelayImportEntry@PE@LIEF@@6B@
??_7DexFile@OAT@LIEF@@6B@
??_7DosHeader@PE@LIEF@@6B@
??_7DyldEnvironment@MachO@LIEF@@6B@
??_7DyldInfo@MachO@LIEF@@6B@
??_7DylibCommand@MachO@LIEF@@6B@
??_7DylinkerCommand@MachO@LIEF@@6B@
??_7DynamicEntry@ELF@LIEF@@6B@
??_7DynamicEntryArray@ELF@LIEF@@6B@
??_7DynamicEntryFlags@ELF@LIEF@@6B@
??_7DynamicEntryLibrary@ELF@LIEF@@6B@
??_7DynamicEntryRpath@ELF@LIEF@@6B@
??_7DynamicEntryRunPath@ELF@LIEF@@6B@
??_7DynamicSharedObject@ELF@LIEF@@6B@
??_7DynamicSymbolCommand@MachO@LIEF@@6B@
??_7EncryptionInfo@MachO@LIEF@@6B@
??_7Export@PE@LIEF@@6B@
??_7ExportEntry@PE@LIEF@@6B@
??_7ExportInfo@MachO@LIEF@@6B@
??_7FatBinary@MachO@LIEF@@6B@
??_7Field@DEX@LIEF@@6B@
??_7File@ART@LIEF@@6B@
??_7File@DEX@LIEF@@6B@
??_7File@VDEX@LIEF@@6B@
??_7FilesetCommand@MachO@LIEF@@6B@
??_7Function@LIEF@@6B@
??_7FunctionStarts@MachO@LIEF@@6B@
??_7GenericType@PE@LIEF@@6B@
??_7GnuHash@ELF@LIEF@@6B@
??_7Hash@ART@LIEF@@6B@
??_7Hash@DEX@LIEF@@6B@
??_7Hash@ELF@LIEF@@6B@
??_7Hash@LIEF@@6B@
??_7Hash@MachO@LIEF@@6B@
??_7Hash@OAT@LIEF@@6B@
??_7Hash@PE@LIEF@@6B@
??_7Hash@VDEX@LIEF@@6B@
??_7Header@ART@LIEF@@6B@
??_7Header@DEX@LIEF@@6B@
??_7Header@ELF@LIEF@@6B@
??_7Header@LIEF@@6B@
??_7Header@MachO@LIEF@@6B@
??_7Header@OAT@LIEF@@6B@
??_7Header@PE@LIEF@@6B@
??_7Header@VDEX@LIEF@@6B@
??_7Import@PE@LIEF@@6B@
??_7ImportEntry@PE@LIEF@@6B@
??_7LangCodeItem@PE@LIEF@@6B@
??_7LoadCommand@MachO@LIEF@@6B@
??_7LoadConfiguration@PE@LIEF@@6B@
??_7LoadConfigurationV0@PE@LIEF@@6B@
??_7LoadConfigurationV1@PE@LIEF@@6B@
??_7LoadConfigurationV2@PE@LIEF@@6B@
??_7LoadConfigurationV3@PE@LIEF@@6B@
??_7LoadConfigurationV4@PE@LIEF@@6B@
??_7LoadConfigurationV5@PE@LIEF@@6B@
??_7LoadConfigurationV6@PE@LIEF@@6B@
??_7LoadConfigurationV7@PE@LIEF@@6B@
??_7MainCommand@MachO@LIEF@@6B@
??_7MapItem@DEX@LIEF@@6B@
??_7MapList@DEX@LIEF@@6B@
??_7Method@DEX@LIEF@@6B@
??_7Method@OAT@LIEF@@6B@
??_7MsSpcNestedSignature@PE@LIEF@@6B@
??_7MsSpcStatementType@PE@LIEF@@6B@
??_7Note@ELF@LIEF@@6B@
??_7NoteAbi@ELF@LIEF@@6B@
??_7NoteDetails@ELF@LIEF@@6B@
??_7Object@LIEF@@6B@
??_7OptionalHeader@PE@LIEF@@6B@
??_7PKCS9AtSequenceNumber@PE@LIEF@@6B@
??_7PKCS9CounterSignature@PE@LIEF@@6B@
??_7PKCS9MessageDigest@PE@LIEF@@6B@
??_7PKCS9SigningTime@PE@LIEF@@6B@
??_7Parser@ART@LIEF@@6B@
??_7Parser@VDEX@LIEF@@6B@
??_7Pogo@PE@LIEF@@6B@
??_7PogoEntry@PE@LIEF@@6B@
??_7Prototype@DEX@LIEF@@6B@
??_7RPathCommand@MachO@LIEF@@6B@
??_7Relocation@ELF@LIEF@@6B@
??_7Relocation@LIEF@@6B@
??_7Relocation@MachO@LIEF@@6B@
??_7Relocation@PE@LIEF@@6B@
??_7RelocationDyld@MachO@LIEF@@6B@
??_7RelocationEntry@PE@LIEF@@6B@
??_7RelocationObject@MachO@LIEF@@6B@
??_7ResourceAccelerator@PE@LIEF@@6B@
??_7ResourceData@PE@LIEF@@6B@
??_7ResourceDialog@PE@LIEF@@6B@
??_7ResourceDialogItem@PE@LIEF@@6B@
??_7ResourceDirectory@PE@LIEF@@6B@
??_7ResourceFixedFileInfo@PE@LIEF@@6B@
??_7ResourceIcon@PE@LIEF@@6B@
??_7ResourceNode@PE@LIEF@@6B@
??_7ResourceStringFileInfo@PE@LIEF@@6B@
??_7ResourceStringTable@PE@LIEF@@6B@
??_7ResourceVarFileInfo@PE@LIEF@@6B@
??_7ResourceVersion@PE@LIEF@@6B@
??_7ResourcesManager@PE@LIEF@@6B@
??_7RichEntry@PE@LIEF@@6B@
??_7RichHeader@PE@LIEF@@6B@
??_7Section@ELF@LIEF@@6B@
??_7Section@LIEF@@6B@
??_7Section@MachO@LIEF@@6B@
??_7Section@PE@LIEF@@6B@
??_7Segment@ELF@LIEF@@6B@
??_7SegmentCommand@MachO@LIEF@@6B@
??_7SegmentSplitInfo@MachO@LIEF@@6B@
??_7Signature@PE@LIEF@@6B@
??_7SignerInfo@PE@LIEF@@6B@
??_7SourceVersion@MachO@LIEF@@6B@
??_7SpcSpOpusInfo@PE@LIEF@@6B@
??_7SubFramework@MachO@LIEF@@6B@
??_7Symbol@ELF@LIEF@@6B@
??_7Symbol@LIEF@@6B@
??_7Symbol@MachO@LIEF@@6B@
??_7Symbol@PE@LIEF@@6B@
??_7SymbolCommand@MachO@LIEF@@6B@
??_7SymbolVersion@ELF@LIEF@@6B@
??_7SymbolVersionAux@ELF@LIEF@@6B@
??_7SymbolVersionAuxRequirement@ELF@LIEF@@6B@
??_7SymbolVersionDefinition@ELF@LIEF@@6B@
??_7SymbolVersionRequirement@ELF@LIEF@@6B@
??_7SysvHash@ELF@LIEF@@6B@
??_7TLS@PE@LIEF@@6B@
??_7ThreadCommand@MachO@LIEF@@6B@
??_7Type@DEX@LIEF@@6B@
??_7UUIDCommand@MachO@LIEF@@6B@
??_7VersionMin@MachO@LIEF@@6B@
??_7Visitor@LIEF@@6B@
??_7bad_file@LIEF@@6B@
??_7bad_format@LIEF@@6B@
??_7builder_error@LIEF@@6B@
??_7conversion_error@LIEF@@6B@
??_7corrupted@LIEF@@6B@
??_7exception@LIEF@@6B@
??_7integrity_error@LIEF@@6B@
??_7not_found@LIEF@@6B@
??_7not_implemented@LIEF@@6B@
??_7not_supported@LIEF@@6B@
??_7parser_error@LIEF@@6B@
??_7pe_bad_section_name@LIEF@@6B@
??_7pe_error@LIEF@@6B@
??_7read_out_of_bound@LIEF@@6B@
??_7type_error@LIEF@@6B@
??_7x509@PE@LIEF@@6B@
?D@RsaInfo@PE@LIEF@@QEBA?AV?$vector@EV?$allocator@E@std@@@std@@XZ
?DELTA_NB_SYMBOLS@Parser@ELF@LIEF@@2IB
?E@RsaInfo@PE@LIEF@@QEBA?AV?$vector@EV?$allocator@E@std@@@std@@XZ
?MAX_COMMANDS@BinaryParser@MachO@LIEF@@0_KB
?MAX_DATA_SIZE@Parser@PE@LIEF@@2_KB
?MAX_DLL_NAME_SIZE@Parser@PE@LIEF@@2_KB
?MAX_NOTE_DESCRIPTION@Parser@ELF@LIEF@@2IB
?MAX_PADDING_SIZE@Parser@PE@LIEF@@2_KB
?MAX_RELOCATIONS@BinaryParser@MachO@LIEF@@0_KB
?MAX_SECTION_SIZE@Parser@ELF@LIEF@@2IB
?MAX_SEGMENT_SIZE@Parser@ELF@LIEF@@2IB
?MAX_SIZE@Handler@DataHandler@ELF@LIEF@@2_KB
?MAX_TLS_CALLBACKS@Parser@PE@LIEF@@2_KB
?N@RsaInfo@PE@LIEF@@QEBA?AV?$vector@EV?$allocator@E@std@@@std@@XZ
?NAME@AndroidNote@ELF@LIEF@@2QBDB
?NB_MAX_BUCKETS@Parser@ELF@LIEF@@2IB
?NB_MAX_CHAINS@Parser@ELF@LIEF@@2IB
?NB_MAX_DYNAMIC_ENTRIES@Parser@ELF@LIEF@@2IB
?NB_MAX_MASKWORD@Parser@ELF@LIEF@@2IB
?NB_MAX_RELOCATIONS@Parser@ELF@LIEF@@2IB
?NB_MAX_SECTION@Parser@ELF@LIEF@@2IB
?NB_MAX_SEGMENTS@Parser@ELF@LIEF@@2IB
?NB_MAX_SYMBOLS@Parser@ELF@LIEF@@2IB
?P@RsaInfo@PE@LIEF@@QEBA?AV?$vector@EV?$allocator@E@std@@@std@@XZ
?PRINT_WIDTH@CodeIntegrity@PE@LIEF@@2_KB
?PRINT_WIDTH@LoadConfiguration@PE@LIEF@@2_KB
?Q@RsaInfo@PE@LIEF@@QEBA?AV?$vector@EV?$allocator@E@std@@@std@@XZ
?RVA@DataDirectory@PE@LIEF@@QEAAXI@Z
?RVA@DataDirectory@PE@LIEF@@QEBAIXZ
?VERSION@LoadConfiguration@PE@LIEF@@2W4WIN_VERSION@23@B
?VERSION@LoadConfigurationV0@PE@LIEF@@2W4WIN_VERSION@23@B
?VERSION@LoadConfigurationV1@PE@LIEF@@2W4WIN_VERSION@23@B
?VERSION@LoadConfigurationV2@PE@LIEF@@2W4WIN_VERSION@23@B
?VERSION@LoadConfigurationV3@PE@LIEF@@2W4WIN_VERSION@23@B
?VERSION@LoadConfigurationV4@PE@LIEF@@2W4WIN_VERSION@23@B
?VERSION@LoadConfigurationV5@PE@LIEF@@2W4WIN_VERSION@23@B
?VERSION@LoadConfigurationV6@PE@LIEF@@2W4WIN_VERSION@23@B
?VERSION@LoadConfigurationV7@PE@LIEF@@2W4WIN_VERSION@23@B
?abi@NoteAbi@ELF@LIEF@@QEBA?AW4NOTE_ABIS@23@XZ
?abi_offset@NoteAbi@ELF@LIEF@@2_KB
?abi_size@NoteAbi@ELF@LIEF@@2_KB
?abstract_architecture@Header@ELF@LIEF@@QEBA?AU?$pair@W4ARCHITECTURES@LIEF@@V?$set@W4MODES@LIEF@@U?$less@W4MODES@LIEF@@@std@@V?$allocator@W4MODES@LIEF@@@4@@std@@@std@@XZ
?abstract_architecture@Header@MachO@LIEF@@QEBA?AU?$pair@W4ARCHITECTURES@LIEF@@V?$set@W4MODES@LIEF@@U?$less@W4MODES@LIEF@@@std@@V?$allocator@W4MODES@LIEF@@@4@@std@@@std@@XZ
?abstract_endianness@Header@ELF@LIEF@@QEBA?AW4ENDIANNESS@3@XZ
?abstract_endianness@Header@MachO@LIEF@@QEBA?AW4ENDIANNESS@3@XZ
?abstract_object_type@Header@ELF@LIEF@@QEBA?AW4OBJECT_TYPES@3@XZ
?abstract_object_type@Header@MachO@LIEF@@QEBA?AW4OBJECT_TYPES@3@XZ
?accelerator@ResourcesManager@PE@LIEF@@QEBA?AV?$ref_iterator@$$CBV?$vector@VResourceAccelerator@PE@LIEF@@V?$allocator@VResourceAccelerator@PE@LIEF@@@std@@@std@@VResourceAccelerator@PE@LIEF@@V?$_Vector_const_iterator@V?$_Vector_val@U?$_Simple_types@VResourceAccelerator@PE@LIEF@@@std@@@std@@@2@@3@XZ
?accept@AndroidNote@ELF@LIEF@@UEBAXAEAVVisitor@3@@Z
?accept@Attribute@PE@LIEF@@UEBAXAEAVVisitor@3@@Z
?accept@Binary@ELF@LIEF@@UEBAXAEAVVisitor@3@@Z
?accept@Binary@LIEF@@UEBAXAEAVVisitor@2@@Z
?accept@Binary@MachO@LIEF@@UEBAXAEAVVisitor@3@@Z
?accept@Binary@OAT@LIEF@@UEBAXAEAVVisitor@3@@Z
?accept@Binary@PE@LIEF@@UEBAXAEAVVisitor@3@@Z
?accept@BindingInfo@MachO@LIEF@@UEBAXAEAVVisitor@3@@Z
?accept@BuildToolVersion@MachO@LIEF@@UEBAXAEAVVisitor@3@@Z
?accept@BuildVersion@MachO@LIEF@@UEBAXAEAVVisitor@3@@Z
?accept@Class@DEX@LIEF@@UEBAXAEAVVisitor@3@@Z
?accept@Class@OAT@LIEF@@UEBAXAEAVVisitor@3@@Z
?accept@CodeInfo@DEX@LIEF@@UEBAXAEAVVisitor@3@@Z
?accept@CodeIntegrity@PE@LIEF@@UEBAXAEAVVisitor@3@@Z
?accept@CodeSignature@MachO@LIEF@@UEBAXAEAVVisitor@3@@Z
?accept@CodeView@PE@LIEF@@UEBAXAEAVVisitor@3@@Z
?accept@CodeViewPDB@PE@LIEF@@UEBAXAEAVVisitor@3@@Z
?accept@ContentInfo@PE@LIEF@@UEBAXAEAVVisitor@3@@Z
?accept@ContentType@PE@LIEF@@UEBAXAEAVVisitor@3@@Z
?accept@CoreAuxv@ELF@LIEF@@UEBAXAEAVVisitor@3@@Z
?accept@CoreFile@ELF@LIEF@@UEBAXAEAVVisitor@3@@Z
?accept@CorePrPsInfo@ELF@LIEF@@UEBAXAEAVVisitor@3@@Z
?accept@CorePrStatus@ELF@LIEF@@UEBAXAEAVVisitor@3@@Z
?accept@CoreSigInfo@ELF@LIEF@@UEBAXAEAVVisitor@3@@Z
?accept@DataCodeEntry@MachO@LIEF@@UEBAXAEAVVisitor@3@@Z
?accept@DataDirectory@PE@LIEF@@UEBAXAEAVVisitor@3@@Z
?accept@DataInCode@MachO@LIEF@@UEBAXAEAVVisitor@3@@Z
?accept@Debug@PE@LIEF@@UEBAXAEAVVisitor@3@@Z
?accept@DelayImport@PE@LIEF@@UEBAXAEAVVisitor@3@@Z
?accept@DelayImportEntry@PE@LIEF@@UEBAXAEAVVisitor@3@@Z
?accept@DexFile@OAT@LIEF@@UEBAXAEAVVisitor@3@@Z
?accept@DosHeader@PE@LIEF@@UEBAXAEAVVisitor@3@@Z
?accept@DyldEnvironment@MachO@LIEF@@UEBAXAEAVVisitor@3@@Z
?accept@DyldInfo@MachO@LIEF@@UEBAXAEAVVisitor@3@@Z
?accept@DylibCommand@MachO@LIEF@@UEBAXAEAVVisitor@3@@Z
?accept@DylinkerCommand@MachO@LIEF@@UEBAXAEAVVisitor@3@@Z
?accept@DynamicEntry@ELF@LIEF@@UEBAXAEAVVisitor@3@@Z
?accept@DynamicEntryArray@ELF@LIEF@@UEBAXAEAVVisitor@3@@Z
?accept@DynamicEntryFlags@ELF@LIEF@@UEBAXAEAVVisitor@3@@Z
?accept@DynamicEntryLibrary@ELF@LIEF@@UEBAXAEAVVisitor@3@@Z
?accept@DynamicEntryRpath@ELF@LIEF@@UEBAXAEAVVisitor@3@@Z
?accept@DynamicEntryRunPath@ELF@LIEF@@UEBAXAEAVVisitor@3@@Z
?accept@DynamicSharedObject@ELF@LIEF@@UEBAXAEAVVisitor@3@@Z
?accept@DynamicSymbolCommand@MachO@LIEF@@UEBAXAEAVVisitor@3@@Z
?accept@EncryptionInfo@MachO@LIEF@@UEBAXAEAVVisitor@3@@Z
?accept@Export@PE@LIEF@@UEBAXAEAVVisitor@3@@Z
?accept@ExportEntry@PE@LIEF@@UEBAXAEAVVisitor@3@@Z
?accept@ExportInfo@MachO@LIEF@@UEBAXAEAVVisitor@3@@Z
?accept@Field@DEX@LIEF@@UEBAXAEAVVisitor@3@@Z
?accept@File@ART@LIEF@@UEBAXAEAVVisitor@3@@Z
?accept@File@DEX@LIEF@@UEBAXAEAVVisitor@3@@Z
?accept@File@VDEX@LIEF@@UEBAXAEAVVisitor@3@@Z
?accept@Function@LIEF@@UEBAXAEAVVisitor@2@@Z
?accept@FunctionStarts@MachO@LIEF@@UEBAXAEAVVisitor@3@@Z
?accept@GenericType@PE@LIEF@@UEBAXAEAVVisitor@3@@Z
?accept@GnuHash@ELF@LIEF@@UEBAXAEAVVisitor@3@@Z
?accept@Header@ART@LIEF@@UEBAXAEAVVisitor@3@@Z
?accept@Header@DEX@LIEF@@UEBAXAEAVVisitor@3@@Z
?accept@Header@ELF@LIEF@@UEBAXAEAVVisitor@3@@Z
?accept@Header@LIEF@@UEBAXAEAVVisitor@2@@Z
?accept@Header@MachO@LIEF@@UEBAXAEAVVisitor@3@@Z
?accept@Header@OAT@LIEF@@UEBAXAEAVVisitor@3@@Z
?accept@Header@PE@LIEF@@UEBAXAEAVVisitor@3@@Z
?accept@Header@VDEX@LIEF@@UEBAXAEAVVisitor@3@@Z
?accept@Import@PE@LIEF@@UEBAXAEAVVisitor@3@@Z
?accept@ImportEntry@PE@LIEF@@UEBAXAEAVVisitor@3@@Z
?accept@LangCodeItem@PE@LIEF@@UEBAXAEAVVisitor@3@@Z
?accept@LoadCommand@MachO@LIEF@@UEBAXAEAVVisitor@3@@Z
?accept@LoadConfiguration@PE@LIEF@@UEBAXAEAVVisitor@3@@Z
?accept@LoadConfigurationV0@PE@LIEF@@UEBAXAEAVVisitor@3@@Z
?accept@LoadConfigurationV1@PE@LIEF@@UEBAXAEAVVisitor@3@@Z
?accept@LoadConfigurationV2@PE@LIEF@@UEBAXAEAVVisitor@3@@Z
?accept@LoadConfigurationV3@PE@LIEF@@UEBAXAEAVVisitor@3@@Z
?accept@LoadConfigurationV4@PE@LIEF@@UEBAXAEAVVisitor@3@@Z
?accept@LoadConfigurationV5@PE@LIEF@@UEBAXAEAVVisitor@3@@Z
?accept@LoadConfigurationV6@PE@LIEF@@UEBAXAEAVVisitor@3@@Z
?accept@LoadConfigurationV7@PE@LIEF@@UEBAXAEAVVisitor@3@@Z
?accept@MainCommand@MachO@LIEF@@UEBAXAEAVVisitor@3@@Z
?accept@MapItem@DEX@LIEF@@UEBAXAEAVVisitor@3@@Z
?accept@MapList@DEX@LIEF@@UEBAXAEAVVisitor@3@@Z
?accept@Method@DEX@LIEF@@UEBAXAEAVVisitor@3@@Z
?accept@Method@OAT@LIEF@@UEBAXAEAVVisitor@3@@Z
?accept@MsSpcNestedSignature@PE@LIEF@@UEBAXAEAVVisitor@3@@Z
?accept@MsSpcStatementType@PE@LIEF@@UEBAXAEAVVisitor@3@@Z
?accept@Note@ELF@LIEF@@UEBAXAEAVVisitor@3@@Z
?accept@NoteAbi@ELF@LIEF@@UEBAXAEAVVisitor@3@@Z
?accept@NoteDetails@ELF@LIEF@@UEBAXAEAVVisitor@3@@Z
?accept@OptionalHeader@PE@LIEF@@UEBAXAEAVVisitor@3@@Z
?accept@PKCS9AtSequenceNumber@PE@LIEF@@UEBAXAEAVVisitor@3@@Z
?accept@PKCS9CounterSignature@PE@LIEF@@UEBAXAEAVVisitor@3@@Z
?accept@PKCS9MessageDigest@PE@LIEF@@UEBAXAEAVVisitor@3@@Z
?accept@PKCS9SigningTime@PE@LIEF@@UEBAXAEAVVisitor@3@@Z
?accept@Pogo@PE@LIEF@@UEBAXAEAVVisitor@3@@Z
?accept@PogoEntry@PE@LIEF@@UEBAXAEAVVisitor@3@@Z
?accept@Prototype@DEX@LIEF@@UEBAXAEAVVisitor@3@@Z
?accept@RPathCommand@MachO@LIEF@@UEBAXAEAVVisitor@3@@Z
?accept@Relocation@ELF@LIEF@@UEBAXAEAVVisitor@3@@Z
?accept@Relocation@LIEF@@UEBAXAEAVVisitor@2@@Z
?accept@Relocation@MachO@LIEF@@UEBAXAEAVVisitor@3@@Z
?accept@Relocation@PE@LIEF@@UEBAXAEAVVisitor@3@@Z
?accept@RelocationDyld@MachO@LIEF@@UEBAXAEAVVisitor@3@@Z
?accept@RelocationEntry@PE@LIEF@@UEBAXAEAVVisitor@3@@Z
?accept@RelocationObject@MachO@LIEF@@UEBAXAEAVVisitor@3@@Z
?accept@ResourceAccelerator@PE@LIEF@@UEBAXAEAVVisitor@3@@Z
?accept@ResourceData@PE@LIEF@@UEBAXAEAVVisitor@3@@Z
?accept@ResourceDialog@PE@LIEF@@UEBAXAEAVVisitor@3@@Z
?accept@ResourceDialogItem@PE@LIEF@@UEBAXAEAVVisitor@3@@Z
?accept@ResourceDirectory@PE@LIEF@@UEBAXAEAVVisitor@3@@Z
?accept@ResourceFixedFileInfo@PE@LIEF@@UEBAXAEAVVisitor@3@@Z
?accept@ResourceIcon@PE@LIEF@@UEBAXAEAVVisitor@3@@Z
?accept@ResourceNode@PE@LIEF@@UEBAXAEAVVisitor@3@@Z
?accept@ResourceStringFileInfo@PE@LIEF@@UEBAXAEAVVisitor@3@@Z
?accept@ResourceStringTable@PE@LIEF@@UEBAXAEAVVisitor@3@@Z
?accept@ResourceVarFileInfo@PE@LIEF@@UEBAXAEAVVisitor@3@@Z
?accept@ResourceVersion@PE@LIEF@@UEBAXAEAVVisitor@3@@Z
?accept@ResourcesManager@PE@LIEF@@UEBAXAEAVVisitor@3@@Z
?accept@RichEntry@PE@LIEF@@UEBAXAEAVVisitor@3@@Z
?accept@RichHeader@PE@LIEF@@UEBAXAEAVVisitor@3@@Z
?accept@Section@ELF@LIEF@@UEBAXAEAVVisitor@3@@Z
?accept@Section@LIEF@@UEBAXAEAVVisitor@2@@Z
?accept@Section@MachO@LIEF@@UEBAXAEAVVisitor@3@@Z
?accept@Section@PE@LIEF@@UEBAXAEAVVisitor@3@@Z
?accept@Segment@ELF@LIEF@@UEBAXAEAVVisitor@3@@Z
?accept@SegmentCommand@MachO@LIEF@@UEBAXAEAVVisitor@3@@Z
?accept@SegmentSplitInfo@MachO@LIEF@@UEBAXAEAVVisitor@3@@Z
?accept@Signature@PE@LIEF@@UEBAXAEAVVisitor@3@@Z
?accept@SignerInfo@PE@LIEF@@UEBAXAEAVVisitor@3@@Z
?accept@SourceVersion@MachO@LIEF@@UEBAXAEAVVisitor@3@@Z
?accept@SpcSpOpusInfo@PE@LIEF@@UEBAXAEAVVisitor@3@@Z
?accept@SubFramework@MachO@LIEF@@UEBAXAEAVVisitor@3@@Z
?accept@Symbol@ELF@LIEF@@UEBAXAEAVVisitor@3@@Z
?accept@Symbol@LIEF@@UEBAXAEAVVisitor@2@@Z
?accept@Symbol@MachO@LIEF@@UEBAXAEAVVisitor@3@@Z
?accept@Symbol@PE@LIEF@@UEBAXAEAVVisitor@3@@Z
?accept@SymbolCommand@MachO@LIEF@@UEBAXAEAVVisitor@3@@Z
?accept@SymbolVersion@ELF@LIEF@@UEBAXAEAVVisitor@3@@Z
?accept@SymbolVersionAux@ELF@LIEF@@UEBAXAEAVVisitor@3@@Z
?accept@SymbolVersionAuxRequirement@ELF@LIEF@@UEBAXAEAVVisitor@3@@Z
?accept@SymbolVersionDefinition@ELF@LIEF@@UEBAXAEAVVisitor@3@@Z
?accept@SymbolVersionRequirement@ELF@LIEF@@UEBAXAEAVVisitor@3@@Z
?accept@SysvHash@ELF@LIEF@@UEBAXAEAVVisitor@3@@Z
?accept@TLS@PE@LIEF@@UEBAXAEAVVisitor@3@@Z
?accept@ThreadCommand@MachO@LIEF@@UEBAXAEAVVisitor@3@@Z
?accept@Type@DEX@LIEF@@UEBAXAEAVVisitor@3@@Z
?accept@UUIDCommand@MachO@LIEF@@UEBAXAEAVVisitor@3@@Z
?accept@VersionMin@MachO@LIEF@@UEBAXAEAVVisitor@3@@Z
?accept@x509@PE@LIEF@@UEBAXAEAVVisitor@3@@Z
?access_flags@Class@DEX@LIEF@@QEBA?AV?$vector@W4ACCESS_FLAGS@DEX@LIEF@@V?$allocator@W4ACCESS_FLAGS@DEX@LIEF@@@std@@@std@@XZ
?access_flags@Field@DEX@LIEF@@QEBA?AV?$vector@W4ACCESS_FLAGS@DEX@LIEF@@V?$allocator@W4ACCESS_FLAGS@DEX@LIEF@@@std@@@std@@XZ
?access_flags@Method@DEX@LIEF@@QEBA?AV?$vector@W4ACCESS_FLAGS@DEX@LIEF@@V?$allocator@W4ACCESS_FLAGS@DEX@LIEF@@@std@@@std@@XZ
?add@Binary@ELF@LIEF@@QEAAAEAVDynamicEntry@23@AEBV423@@Z
?add@Binary@ELF@LIEF@@QEAAAEAVNote@23@AEBV423@@Z
?add@Binary@ELF@LIEF@@QEAAAEAVSection@23@AEBV423@_N@Z
?add@Binary@ELF@LIEF@@QEAAAEAVSegment@23@AEBV423@_K@Z
?add@Binary@MachO@LIEF@@QEAAAEAVLoadCommand@23@AEBV423@@Z
?add@Binary@MachO@LIEF@@QEAAAEAVLoadCommand@23@AEBV423@_K@Z
?add@Binary@MachO@LIEF@@QEAAAEAVLoadCommand@23@AEBVDylibCommand@23@@Z
?add@Binary@MachO@LIEF@@QEAAAEAVLoadCommand@23@AEBVSegmentCommand@23@@Z
?add@DataInCode@MachO@LIEF@@QEAAAEAV123@AEBVDataCodeEntry@23@@Z
?add@DynamicEntryFlags@ELF@LIEF@@QEAAXW4DYNAMIC_FLAGS@23@@Z
?add@DynamicEntryFlags@ELF@LIEF@@QEAAXW4DYNAMIC_FLAGS_1@23@@Z
?add@Function@LIEF@@QEAAAEAV12@W4FLAGS@12@@Z
?add@Handler@DataHandler@ELF@LIEF@@QEAAAEAVNode@234@AEBV5234@@Z
?add@Header@MachO@LIEF@@QEAAXW4HEADER_FLAGS@23@@Z
?add@OptionalHeader@PE@LIEF@@QEAAXW4DLL_CHARACTERISTICS@23@@Z
?add@Section@ELF@LIEF@@QEAAXW4ELF_SECTION_FLAGS@23@@Z
?add@Section@MachO@LIEF@@QEAAXW4MACHO_SECTION_FLAGS@23@@Z
?add@Segment@ELF@LIEF@@QEAAXW4ELF_SEGMENT_FLAGS@23@@Z
?add_aux_requirement@SymbolVersionRequirement@ELF@LIEF@@QEAAAEAVSymbolVersionAuxRequirement@23@AEBV423@@Z
?add_cached_segment@Binary@MachO@LIEF@@AEAA_KAEAVSegmentCommand@23@@Z
?add_characteristic@Header@PE@LIEF@@QEAAXW4HEADER_CHARACTERISTICS@23@@Z
?add_characteristic@Section@PE@LIEF@@QEAAXW4SECTION_CHARACTERISTICS@23@@Z
?add_child@ResourceNode@PE@LIEF@@QEAAAEAV123@AEBVResourceData@23@@Z
?add_child@ResourceNode@PE@LIEF@@QEAAAEAV123@AEBVResourceDirectory@23@@Z
?add_class@Binary@OAT@LIEF@@AEAAXV?$unique_ptr@VClass@OAT@LIEF@@U?$default_delete@VClass@OAT@LIEF@@@std@@@std@@@Z
?add_class@File@DEX@LIEF@@AEAAXV?$unique_ptr@VClass@DEX@LIEF@@U?$default_delete@VClass@DEX@LIEF@@@std@@@std@@@Z
?add_dynamic_relocation@Binary@ELF@LIEF@@QEAAAEAVRelocation@23@AEBV423@@Z
?add_dynamic_symbol@Binary@ELF@LIEF@@QEAAAEAVSymbol@23@AEBV423@PEBVSymbolVersion@23@@Z
?add_entry@Import@PE@LIEF@@QEAAAEAVImportEntry@23@AEBV423@@Z
?add_entry@Import@PE@LIEF@@QEAAAEAVImportEntry@23@AEBV?$basic_string@DU?$char_traits@D@std@@V?$allocator@D@2@@std@@@Z
?add_entry@Relocation@PE@LIEF@@QEAAAEAVRelocationEntry@23@AEBV423@@Z
?add_entry@RichHeader@PE@LIEF@@QEAAXAEBVRichEntry@23@@Z
?add_entry@RichHeader@PE@LIEF@@QEAAXGGI@Z
?add_exported_function@Binary@ELF@LIEF@@QEAAAEAVSymbol@23@_KAEBV?$basic_string@DU?$char_traits@D@std@@V?$allocator@D@2@@std@@@Z
?add_function@FunctionStarts@MachO@LIEF@@QEAAX_K@Z
?add_icon@ResourcesManager@PE@LIEF@@QEAAXAEBVResourceIcon@23@@Z
?add_import_function@Binary@PE@LIEF@@QEAAPEAVImportEntry@23@AEBV?$basic_string@DU?$char_traits@D@std@@V?$allocator@D@2@@std@@0@Z
?add_library@Binary@ELF@LIEF@@QEAAAEAVDynamicEntryLibrary@23@AEBV?$basic_string@DU?$char_traits@D@std@@V?$allocator@D@2@@std@@@Z
?add_library@Binary@MachO@LIEF@@QEAAAEAVLoadCommand@23@AEBV?$basic_string@DU?$char_traits@D@std@@V?$allocator@D@2@@std@@@Z
?add_library@Binary@PE@LIEF@@QEAAAEAVImport@23@AEBV?$basic_string@DU?$char_traits@D@std@@V?$allocator@D@2@@std@@@Z
?add_object_relocation@Binary@ELF@LIEF@@QEAAPEAVRelocation@23@AEBV423@AEBVSection@23@@Z
?add_pltgot_relocation@Binary@ELF@LIEF@@QEAAAEAVRelocation@23@AEBV423@@Z
?add_relocation@Binary@PE@LIEF@@QEAAAEAVRelocation@23@AEBV423@@Z
?add_section@Binary@MachO@LIEF@@QEAAPEAVSection@23@AEBV423@@Z
?add_section@Binary@MachO@LIEF@@QEAAPEAVSection@23@AEBVSegmentCommand@23@AEBV423@@Z
?add_section@Binary@PE@LIEF@@QEAAAEAVSection@23@AEBV423@W4PE_SECTION_TYPES@23@@Z
?add_section@SegmentCommand@MachO@LIEF@@QEAAAEAVSection@23@AEBV423@@Z
?add_static_symbol@Binary@ELF@LIEF@@QEAAAEAVSymbol@23@AEBV423@@Z
?add_type@Section@PE@LIEF@@QEAAXW4PE_SECTION_TYPES@23@@Z
?addend@BindingInfo@MachO@LIEF@@QEAAX_J@Z
?addend@BindingInfo@MachO@LIEF@@QEBA_JXZ
?addend@Relocation@ELF@LIEF@@QEAAX_J@Z
?addend@Relocation@ELF@LIEF@@QEBA_JXZ
?address@BindingInfo@MachO@LIEF@@QEAAX_K@Z
?address@BindingInfo@MachO@LIEF@@QEBA_KXZ
?address@ExportEntry@PE@LIEF@@QEAAXI@Z
?address@ExportEntry@PE@LIEF@@QEBAIXZ
?address@ExportInfo@MachO@LIEF@@QEAAX_K@Z
?address@ExportInfo@MachO@LIEF@@QEBA_KXZ
?address@Function@LIEF@@QEAAX_K@Z
?address@Function@LIEF@@QEBA_KXZ
?address@Relocation@LIEF@@UEAAX_K@Z
?address@Relocation@LIEF@@UEBA_KXZ
?address@RelocationEntry@PE@LIEF@@UEAAX_K@Z
?address@RelocationEntry@PE@LIEF@@UEBA_KXZ
?address@RelocationObject@MachO@LIEF@@UEBA_KXZ
?address@Section@MachO@LIEF@@QEAAX_K@Z
?address@Section@MachO@LIEF@@QEBA_KXZ
?addressof_callbacks@TLS@PE@LIEF@@QEAAX_K@Z
?addressof_callbacks@TLS@PE@LIEF@@QEBA_KXZ
?addressof_entrypoint@OptionalHeader@PE@LIEF@@QEAAXI@Z
?addressof_entrypoint@OptionalHeader@PE@LIEF@@QEBAIXZ
?addressof_index@TLS@PE@LIEF@@QEAAX_K@Z
?addressof_index@TLS@PE@LIEF@@QEBA_KXZ
?addressof_new_exeheader@DosHeader@PE@LIEF@@QEAAXI@Z
?addressof_new_exeheader@DosHeader@PE@LIEF@@QEBAIXZ
?addressof_raw_data@TLS@PE@LIEF@@QEAAXU?$pair@_K_K@std@@@Z
?addressof_raw_data@TLS@PE@LIEF@@QEBA?AU?$pair@_K_K@std@@XZ
?addressof_rawdata@Debug@PE@LIEF@@QEAAXI@Z
?addressof_rawdata@Debug@PE@LIEF@@QEBAIXZ
?addressof_relocation_table@DosHeader@PE@LIEF@@QEAAXG@Z
?addressof_relocation_table@DosHeader@PE@LIEF@@QEBAGXZ
?addressof_unicode_string@LoadConfigurationV7@PE@LIEF@@QEAAX_K@Z
?addressof_unicode_string@LoadConfigurationV7@PE@LIEF@@QEBA_KXZ
?age@CodeViewPDB@PE@LIEF@@QEAAXI@Z
?age@CodeViewPDB@PE@LIEF@@QEBAIXZ
?algo_from_oid@PE@LIEF@@YA?AW4ALGORITHMS@12@AEBV?$basic_string@DU?$char_traits@D@std@@V?$allocator@D@2@@std@@@Z
?alias@ExportInfo@MachO@LIEF@@QEAAPEAVSymbol@23@XZ
?alias@ExportInfo@MachO@LIEF@@QEBAPEBVSymbol@23@XZ
?alias_library@ExportInfo@MachO@LIEF@@QEAAPEAVDylibCommand@23@XZ
?alias_library@ExportInfo@MachO@LIEF@@QEBAPEBVDylibCommand@23@XZ
?alignment@Section@ELF@LIEF@@QEAAX_K@Z
?alignment@Section@ELF@LIEF@@QEBA_KXZ
?alignment@Section@MachO@LIEF@@QEAAXI@Z
?alignment@Section@MachO@LIEF@@QEBAIXZ
?alignment@Segment@ELF@LIEF@@QEAAX_K@Z
?alignment@Segment@ELF@LIEF@@QEBA_KXZ
?android_version@ART@LIEF@@YA?AW4ANDROID_VERSIONS@Android@2@I@Z
?android_version@OAT@LIEF@@YA?AW4ANDROID_VERSIONS@Android@2@I@Z
?android_version@VDEX@LIEF@@YA?AW4ANDROID_VERSIONS@Android@2@I@Z
?ansi@ResourceAccelerator@PE@LIEF@@QEBAFXZ
?ansi_str@ResourceAccelerator@PE@LIEF@@QEBA?AV?$basic_string@DU?$char_traits@D@std@@V?$allocator@D@2@@std@@XZ
?append@DynamicEntryArray@ELF@LIEF@@QEAAAEAV123@_K@Z
?append@DynamicEntryRpath@ELF@LIEF@@QEAAAEAV123@AEBV?$basic_string@DU?$char_traits@D@std@@V?$allocator@D@2@@std@@@Z
?append@DynamicEntryRunPath@ELF@LIEF@@QEAAAEAV123@AEBV?$basic_string@DU?$char_traits@D@std@@V?$allocator@D@2@@std@@@Z
?architecture@Header@LIEF@@QEAAXW4ARCHITECTURES@2@@Z
?architecture@Header@LIEF@@QEBA?AW4ARCHITECTURES@2@XZ
?architecture@Relocation@ELF@LIEF@@QEBA?AW4ARCH@23@XZ
?architecture@Relocation@MachO@LIEF@@QEBA?AW4CPU_TYPES@23@XZ
?architecture@ThreadCommand@MachO@LIEF@@QEAAXW4CPU_TYPES@23@@Z
?architecture@ThreadCommand@MachO@LIEF@@QEBA?AW4CPU_TYPES@23@XZ
?arm_flags_list@Header@ELF@LIEF@@QEBA?AV?$set@W4ARM_EFLAGS@ELF@LIEF@@U?$less@W4ARM_EFLAGS@ELF@LIEF@@@std@@V?$allocator@W4ARM_EFLAGS@ELF@LIEF@@@5@@std@@XZ
?armexid_functions@Binary@ELF@LIEF@@IEBA?AV?$vector@VFunction@LIEF@@V?$allocator@VFunction@LIEF@@@std@@@std@@XZ
?array@DynamicEntryArray@ELF@LIEF@@QEAAAEAV?$vector@_KV?$allocator@_K@std@@@std@@XZ
?array@DynamicEntryArray@ELF@LIEF@@QEAAXAEBV?$vector@_KV?$allocator@_K@std@@@std@@@Z
?array@DynamicEntryArray@ELF@LIEF@@QEBAAEBV?$vector@_KV?$allocator@_K@std@@@std@@XZ
?array@Type@DEX@LIEF@@QEAAAEAV?$vector@VType@DEX@LIEF@@V?$allocator@VType@DEX@LIEF@@@std@@@std@@XZ
?array@Type@DEX@LIEF@@QEBAAEBV?$vector@VType@DEX@LIEF@@V?$allocator@VType@DEX@LIEF@@@std@@@std@@XZ
?array_section@Builder@ELF@LIEF@@KAPEAVSection@23@AEAVBinary@23@_K@Z
?at@FatBinary@MachO@LIEF@@QEAAPEAVBinary@23@_K@Z
?at@FatBinary@MachO@LIEF@@QEBAPEBVBinary@23@_K@Z
?attribute@DelayImport@PE@LIEF@@QEAAXI@Z
?attribute@DelayImport@PE@LIEF@@QEBAIXZ
?authenticated_attributes@SignerInfo@PE@LIEF@@QEBA?AV?$ref_iterator@AEBV?$vector@V?$unique_ptr@VAttribute@PE@LIEF@@U?$default_delete@VAttribute@PE@LIEF@@@std@@@std@@V?$allocator@V?$unique_ptr@VAttribute@PE@LIEF@@U?$default_delete@VAttribute@PE@LIEF@@@std@@@std@@@2@@std@@PEBVAttribute@PE@LIEF@@V?$_Vector_const_iterator@V?$_Vector_val@U?$_Simple_types@V?$unique_ptr@VAttribute@PE@LIEF@@U?$default_delete@VAttribute@PE@LIEF@@@std@@@std@@@std@@@std@@@2@@3@XZ
?authentihash@Binary@PE@LIEF@@QEBA?AV?$vector@EV?$allocator@E@std@@@std@@W4ALGORITHMS@23@@Z
?auxiliary_symbols@SymbolVersionRequirement@ELF@LIEF@@QEAA?AV?$ref_iterator@AEAV?$vector@V?$unique_ptr@VSymbolVersionAuxRequirement@ELF@LIEF@@U?$default_delete@VSymbolVersionAuxRequirement@ELF@LIEF@@@std@@@std@@V?$allocator@V?$unique_ptr@VSymbolVersionAuxRequirement@ELF@LIEF@@U?$default_delete@VSymbolVersionAuxRequirement@ELF@LIEF@@@std@@@std@@@2@@std@@PEAVSymbolVersionAuxRequirement@ELF@LIEF@@V?$_Vector_iterator@V?$_Vector_val@U?$_Simple_types@V?$unique_ptr@VSymbolVersionAuxRequirement@ELF@LIEF@@U?$default_delete@VSymbolVersionAuxRequirement@ELF@LIEF@@@std@@@std@@@std@@@std@@@2@@3@XZ
?auxiliary_symbols@SymbolVersionRequirement@ELF@LIEF@@QEBA?AV?$ref_iterator@AEBV?$vector@V?$unique_ptr@VSymbolVersionAuxRequirement@ELF@LIEF@@U?$default_delete@VSymbolVersionAuxRequirement@ELF@LIEF@@@std@@@std@@V?$allocator@V?$unique_ptr@VSymbolVersionAuxRequirement@ELF@LIEF@@U?$default_delete@VSymbolVersionAuxRequirement@ELF@LIEF@@@std@@@std@@@2@@std@@PEBVSymbolVersionAuxRequirement@ELF@LIEF@@V?$_Vector_const_iterator@V?$_Vector_val@U?$_Simple_types@V?$unique_ptr@VSymbolVersionAuxRequirement@ELF@LIEF@@U?$default_delete@VSymbolVersionAuxRequirement@ELF@LIEF@@@std@@@std@@@std@@@std@@@2@@3@XZ
?back@FatBinary@MachO@LIEF@@QEAAPEAVBinary@23@XZ
?back@FatBinary@MachO@LIEF@@QEBAPEBVBinary@23@XZ
?base_type@Symbol@PE@LIEF@@QEBA?AW4SYMBOL_BASE_TYPES@23@XZ
?baseof_code@OptionalHeader@PE@LIEF@@QEAAXI@Z
?baseof_code@OptionalHeader@PE@LIEF@@QEBAIXZ
?baseof_data@OptionalHeader@PE@LIEF@@QEAAXI@Z
?baseof_data@OptionalHeader@PE@LIEF@@QEBAIXZ
?begin@CoreFile@ELF@LIEF@@QEAA?AV?$_Vector_iterator@V?$_Vector_val@U?$_Simple_types@UCoreFileEntry@ELF@LIEF@@@std@@@std@@@std@@XZ
?begin@CoreFile@ELF@LIEF@@QEBA?AV?$_Vector_const_iterator@V?$_Vector_val@U?$_Simple_types@UCoreFileEntry@ELF@LIEF@@@std@@@std@@@std@@XZ
?begin@FatBinary@MachO@LIEF@@QEAA?AV?$ref_iterator@AEAV?$vector@V?$unique_ptr@VBinary@MachO@LIEF@@U?$default_delete@VBinary@MachO@LIEF@@@std@@@std@@V?$allocator@V?$unique_ptr@VBinary@MachO@LIEF@@U?$default_delete@VBinary@MachO@LIEF@@@std@@@std@@@2@@std@@PEAVBinary@MachO@LIEF@@V?$_Vector_iterator@V?$_Vector_val@U?$_Simple_types@V?$unique_ptr@VBinary@MachO@LIEF@@U?$default_delete@VBinary@MachO@LIEF@@@std@@@std@@@std@@@std@@@2@@3@XZ
?begin@FatBinary@MachO@LIEF@@QEBA?AV?$ref_iterator@AEBV?$vector@V?$unique_ptr@VBinary@MachO@LIEF@@U?$default_delete@VBinary@MachO@LIEF@@@std@@@std@@V?$allocator@V?$unique_ptr@VBinary@MachO@LIEF@@U?$default_delete@VBinary@MachO@LIEF@@@std@@@std@@@2@@std@@PEAVBinary@MachO@LIEF@@V?$_Vector_const_iterator@V?$_Vector_val@U?$_Simple_types@V?$unique_ptr@VBinary@MachO@LIEF@@U?$default_delete@VBinary@MachO@LIEF@@@std@@@std@@@std@@@std@@@2@@3@XZ
?biat@DelayImport@PE@LIEF@@QEAAXI@Z
?biat@DelayImport@PE@LIEF@@QEBAIXZ
?binary@FilesetCommand@MachO@LIEF@@QEAAPEAVBinary@23@XZ
?binary@FilesetCommand@MachO@LIEF@@QEBAPEBVBinary@23@XZ
?binary@NoteDetails@ELF@LIEF@@IEAAPEAVBinary@23@XZ
?binary@NoteDetails@ELF@LIEF@@IEBAPEBVBinary@23@XZ
?bind@DyldInfo@MachO@LIEF@@QEAAXAEBU?$pair@II@std@@@Z
?bind@DyldInfo@MachO@LIEF@@QEBAAEBU?$pair@II@std@@XZ
?bind_opcodes@DyldInfo@MachO@LIEF@@QEAA?AV?$span@E$0?0@tcb@@XZ
?bind_opcodes@DyldInfo@MachO@LIEF@@QEAAXV?$vector@EV?$allocator@E@std@@@std@@@Z
?bind_opcodes@DyldInfo@MachO@LIEF@@QEBA?AV?$span@$$CBE$0?0@tcb@@XZ
?binding@Symbol@ELF@LIEF@@QEAAXW4SYMBOL_BINDINGS@23@@Z
?binding@Symbol@ELF@LIEF@@QEBA?AW4SYMBOL_BINDINGS@23@XZ
?binding_class@BindingInfo@MachO@LIEF@@QEAAXW4BINDING_CLASS@23@@Z
?binding_class@BindingInfo@MachO@LIEF@@QEBA?AW4BINDING_CLASS@23@XZ
?binding_info@Symbol@MachO@LIEF@@QEAAPEAVBindingInfo@23@XZ
?binding_info@Symbol@MachO@LIEF@@QEBAPEBVBindingInfo@23@XZ
?binding_type@BindingInfo@MachO@LIEF@@QEAAXW4BIND_TYPES@23@@Z
?binding_type@BindingInfo@MachO@LIEF@@QEBA?AW4BIND_TYPES@23@XZ
?bindings@DyldInfo@MachO@LIEF@@QEAA?AV?$ref_iterator@AEAV?$vector@V?$unique_ptr@VBindingInfo@MachO@LIEF@@U?$default_delete@VBindingInfo@MachO@LIEF@@@std@@@std@@V?$allocator@V?$unique_ptr@VBindingInfo@MachO@LIEF@@U?$default_delete@VBindingInfo@MachO@LIEF@@@std@@@std@@@2@@std@@PEAVBindingInfo@MachO@LIEF@@V?$_Vector_iterator@V?$_Vector_val@U?$_Simple_types@V?$unique_ptr@VBindingInfo@MachO@LIEF@@U?$default_delete@VBindingInfo@MachO@LIEF@@@std@@@std@@@std@@@std@@@2@@3@XZ
?bindings@DyldInfo@MachO@LIEF@@QEBA?AV?$ref_iterator@AEBV?$vector@V?$unique_ptr@VBindingInfo@MachO@LIEF@@U?$default_delete@VBindingInfo@MachO@LIEF@@@std@@@std@@V?$allocator@V?$unique_ptr@VBindingInfo@MachO@LIEF@@U?$default_delete@VBindingInfo@MachO@LIEF@@@std@@@std@@@2@@std@@PEAVBindingInfo@MachO@LIEF@@V?$_Vector_const_iterator@V?$_Vector_val@U?$_Simple_types@V?$unique_ptr@VBindingInfo@MachO@LIEF@@U?$default_delete@VBindingInfo@MachO@LIEF@@@std@@@std@@@std@@@std@@@2@@3@XZ
?bit_count@ResourceIcon@PE@LIEF@@QEAAXG@Z
?bit_count@ResourceIcon@PE@LIEF@@QEBAGXZ
?bitmap@Class@OAT@LIEF@@QEBAAEBV?$vector@IV?$allocator@I@std@@@std@@XZ
?block_size@Relocation@PE@LIEF@@QEAAXI@Z
?block_size@Relocation@PE@LIEF@@QEBAIXZ
?bloom_filters@GnuHash@ELF@LIEF@@QEBAAEBV?$vector@_KV?$allocator@_K@std@@@std@@XZ
?boot_image_begin@Header@ART@LIEF@@QEBAIXZ
?boot_image_size@Header@ART@LIEF@@QEBAIXZ
?boot_oat_begin@Header@ART@LIEF@@QEBAIXZ
?boot_oat_size@Header@ART@LIEF@@QEBAIXZ
?buckets@GnuHash@ELF@LIEF@@QEBAAEBV?$vector@IV?$allocator@I@std@@@std@@XZ
?buckets@SysvHash@ELF@LIEF@@QEBAAEBV?$vector@IV?$allocator@I@std@@@std@@XZ
?build@AndroidNote@ELF@LIEF@@MEAAXXZ
?build@Builder@ELF@LIEF@@IEAA?AV?$result@Uok_t@LIEF@@@leaf@boost@@AEBVNote@23@AEAV?$set@PEAVSection@ELF@LIEF@@U?$less@PEAVSection@ELF@LIEF@@@std@@V?$allocator@PEAVSection@ELF@LIEF@@@5@@std@@@Z
?build@Builder@ELF@LIEF@@QEAAXXZ
?build@Builder@MachO@LIEF@@QEAAXXZ
?build@Builder@PE@LIEF@@QEAA?AV?$result@Uok_t@LIEF@@@leaf@boost@@AEBVDataDirectory@23@@Z
?build@Builder@PE@LIEF@@QEAA?AV?$result@Uok_t@LIEF@@@leaf@boost@@AEBVDosHeader@23@@Z
?build@Builder@PE@LIEF@@QEAA?AV?$result@Uok_t@LIEF@@@leaf@boost@@AEBVHeader@23@@Z
?build@Builder@PE@LIEF@@QEAA?AV?$result@Uok_t@LIEF@@@leaf@boost@@AEBVOptionalHeader@23@@Z
?build@Builder@PE@LIEF@@QEAA?AV?$result@Uok_t@LIEF@@@leaf@boost@@AEBVSection@23@@Z
?build@Builder@PE@LIEF@@QEAA?AV?$result@Uok_t@LIEF@@@leaf@boost@@XZ
?build@CoreAuxv@ELF@LIEF@@MEAAXXZ
?build@CoreFile@ELF@LIEF@@MEAAXXZ
?build@CorePrPsInfo@ELF@LIEF@@MEAAXXZ
?build@CorePrStatus@ELF@LIEF@@MEAAXXZ
?build@CoreSigInfo@ELF@LIEF@@MEAAXXZ
?build@NoteDetails@ELF@LIEF@@MEAAXXZ
?build@Parser@MachO@LIEF@@AEAA?AV?$result@Uok_t@LIEF@@@leaf@boost@@XZ
?build_dos_stub@Builder@PE@LIEF@@QEAAAEAV123@_N@Z
?build_empty_symbol_gnuhash@Builder@ELF@LIEF@@IEAA?AV?$result@Uok_t@LIEF@@@leaf@boost@@XZ
?build_fat@Builder@MachO@LIEF@@AEAA?AV?$result@Uok_t@LIEF@@@leaf@boost@@XZ
?build_fat@Parser@MachO@LIEF@@AEAA?AV?$result@Uok_t@LIEF@@@leaf@boost@@XZ
?build_fat_header@Builder@MachO@LIEF@@AEAA?AV?$result@Uok_t@LIEF@@@leaf@boost@@XZ
?build_header@Builder@MachO@LIEF@@AEAA?AV?$result@Uok_t@LIEF@@@leaf@boost@@XZ
?build_id@RichEntry@PE@LIEF@@QEAAXG@Z
?build_id@RichEntry@PE@LIEF@@QEBAGXZ
?build_imports@Builder@PE@LIEF@@QEAAAEAV123@_N@Z
?build_load_commands@Builder@MachO@LIEF@@AEAA?AV?$result@Uok_t@LIEF@@@leaf@boost@@XZ
?build_overlay@Builder@PE@LIEF@@IEAA?AV?$result@Uok_t@LIEF@@@leaf@boost@@XZ
?build_overlay@Builder@PE@LIEF@@QEAAAEAV123@_N@Z
?build_relocation@Builder@PE@LIEF@@IEAA?AV?$result@Uok_t@LIEF@@@leaf@boost@@XZ
?build_relocations@Builder@PE@LIEF@@QEAAAEAV123@_N@Z
?build_resources@Builder@PE@LIEF@@IEAA?AV?$result@Uok_t@LIEF@@@leaf@boost@@XZ
?build_resources@Builder@PE@LIEF@@QEAAAEAV123@_N@Z
?build_tls@Builder@PE@LIEF@@QEAAAEAV123@_N@Z
?build_uuid@Builder@MachO@LIEF@@AEAA?AV?$result@Uok_t@LIEF@@@leaf@boost@@XZ
?build_version@Binary@MachO@LIEF@@QEAAPEAVBuildVersion@23@XZ
?build_version@Binary@MachO@LIEF@@QEBAPEBVBuildVersion@23@XZ
?bytecode@Method@DEX@LIEF@@QEBAAEBV?$vector@EV?$allocator@E@std@@@std@@XZ
?callbacks@TLS@PE@LIEF@@QEAAXAEBV?$vector@_KV?$allocator@_K@std@@@std@@@Z
?callbacks@TLS@PE@LIEF@@QEBAAEBV?$vector@_KV?$allocator@_K@std@@@std@@XZ
?can_remove@Binary@MachO@LIEF@@QEBA_NAEBVSymbol@23@@Z
?can_remove_symbol@Binary@MachO@LIEF@@QEBA_NAEBV?$basic_string@DU?$char_traits@D@std@@V?$allocator@D@2@@std@@@Z
?catalog@CodeIntegrity@PE@LIEF@@QEAAXG@Z
?catalog@CodeIntegrity@PE@LIEF@@QEBAGXZ
?catalog_offset@CodeIntegrity@PE@LIEF@@QEAAXI@Z
?catalog_offset@CodeIntegrity@PE@LIEF@@QEBAIXZ
?cert@SignerInfo@PE@LIEF@@QEAAPEAVx509@23@XZ
?cert@SignerInfo@PE@LIEF@@QEBAPEBVx509@23@XZ
?certificate_policies@x509@PE@LIEF@@QEBA?AV?$vector@V?$basic_string@DU?$char_traits@D@std@@V?$allocator@D@2@@std@@V?$allocator@V?$basic_string@DU?$char_traits@D@std@@V?$allocator@D@2@@std@@@2@@std@@XZ
?certificates@Signature@PE@LIEF@@QEBA?AV?$ref_iterator@AEBV?$vector@Vx509@PE@LIEF@@V?$allocator@Vx509@PE@LIEF@@@std@@@std@@Vx509@PE@LIEF@@V?$_Vector_const_iterator@V?$_Vector_val@U?$_Simple_types@Vx509@PE@LIEF@@@std@@@std@@@2@@3@XZ
?chains@SysvHash@ELF@LIEF@@QEBAAEBV?$vector@IV?$allocator@I@std@@@std@@XZ
?change_icon@ResourcesManager@PE@LIEF@@QEAAXAEBVResourceIcon@23@0@Z
?characteristics@Debug@PE@LIEF@@QEAAXI@Z
?characteristics@Debug@PE@LIEF@@QEBAIXZ
?characteristics@Header@PE@LIEF@@QEAAXW4HEADER_CHARACTERISTICS@23@@Z
?characteristics@Header@PE@LIEF@@QEBA?AW4HEADER_CHARACTERISTICS@23@XZ
?characteristics@LoadConfiguration@PE@LIEF@@QEAAXI@Z
?characteristics@LoadConfiguration@PE@LIEF@@QEBAIXZ
?characteristics@ResourceDirectory@PE@LIEF@@QEAAXI@Z
?characteristics@ResourceDirectory@PE@LIEF@@QEBAIXZ
?characteristics@Section@PE@LIEF@@QEAAXI@Z
?characteristics@Section@PE@LIEF@@QEBAIXZ
?characteristics@TLS@PE@LIEF@@QEAAXI@Z
?characteristics@TLS@PE@LIEF@@QEBAIXZ
?characteristics_list@Header@PE@LIEF@@QEBA?AV?$set@W4HEADER_CHARACTERISTICS@PE@LIEF@@U?$less@W4HEADER_CHARACTERISTICS@PE@LIEF@@@std@@V?$allocator@W4HEADER_CHARACTERISTICS@PE@LIEF@@@5@@std@@XZ
?characteristics_list@Section@PE@LIEF@@QEBA?AV?$set@W4SECTION_CHARACTERISTICS@PE@LIEF@@U?$less@W4SECTION_CHARACTERISTICS@PE@LIEF@@@std@@V?$allocator@W4SECTION_CHARACTERISTICS@PE@LIEF@@@5@@std@@XZ
?charset@ResourceDialog@PE@LIEF@@QEBAEXZ
?check@GnuHash@ELF@LIEF@@QEBA_NAEBV?$basic_string@DU?$char_traits@D@std@@V?$allocator@D@2@@std@@@Z
?check@GnuHash@ELF@LIEF@@QEBA_NI@Z
?check@Signature@PE@LIEF@@QEBA?AW4VERIFICATION_FLAGS@123@W4VERIFICATION_CHECKS@123@@Z
?check_bloom_filter@GnuHash@ELF@LIEF@@QEBA_NI@Z
?check_bucket@GnuHash@ELF@LIEF@@QEBA_NI@Z
?check_layout@MachO@LIEF@@YA_NAEBVBinary@12@PEAV?$basic_string@DU?$char_traits@D@std@@V?$allocator@D@2@@std@@@Z
?check_section_in_segment@Parser@ELF@LIEF@@KA_NAEBVSection@23@AEBVSegment@23@@Z
?check_signature@x509@PE@LIEF@@QEBA_NAEBV?$vector@EV?$allocator@E@std@@@std@@0W4ALGORITHMS@23@@Z
?check_time@x509@PE@LIEF@@SA_NAEBV?$array@H$05@std@@0@Z
?checksum@DexFile@OAT@LIEF@@QEAAXI@Z
?checksum@DexFile@OAT@LIEF@@QEBAIXZ
?checksum@DosHeader@PE@LIEF@@QEAAXG@Z
?checksum@DosHeader@PE@LIEF@@QEBAGXZ
?checksum@Header@DEX@LIEF@@QEBAIXZ
?checksum@Header@OAT@LIEF@@QEBAIXZ
?checksum@OptionalHeader@PE@LIEF@@QEAAXI@Z
?checksum@OptionalHeader@PE@LIEF@@QEBAIXZ
?checksum@Parser@PE@LIEF@@AEAA?AV?$result@I@leaf@boost@@XZ
?childs@ResourceNode@PE@LIEF@@QEAA?AV?$ref_iterator@AEAV?$vector@V?$unique_ptr@VResourceNode@PE@LIEF@@U?$default_delete@VResourceNode@PE@LIEF@@@std@@@std@@V?$allocator@V?$unique_ptr@VResourceNode@PE@LIEF@@U?$default_delete@VResourceNode@PE@LIEF@@@std@@@std@@@2@@std@@PEAVResourceNode@PE@LIEF@@V?$_Vector_iterator@V?$_Vector_val@U?$_Simple_types@V?$unique_ptr@VResourceNode@PE@LIEF@@U?$default_delete@VResourceNode@PE@LIEF@@@std@@@std@@@std@@@std@@@2@@3@XZ
?childs@ResourceNode@PE@LIEF@@QEBA?AV?$ref_iterator@AEBV?$vector@V?$unique_ptr@VResourceNode@PE@LIEF@@U?$default_delete@VResourceNode@PE@LIEF@@@std@@@std@@V?$allocator@V?$unique_ptr@VResourceNode@PE@LIEF@@U?$default_delete@VResourceNode@PE@LIEF@@@std@@@std@@@2@@std@@PEAVResourceNode@PE@LIEF@@V?$_Vector_const_iterator@V?$_Vector_val@U?$_Simple_types@V?$unique_ptr@VResourceNode@PE@LIEF@@U?$default_delete@VResourceNode@PE@LIEF@@@std@@@std@@@std@@@std@@@2@@3@XZ
?classes@Binary@OAT@LIEF@@QEAA?AV?$ref_iterator@AEAV?$vector@V?$unique_ptr@VClass@OAT@LIEF@@U?$default_delete@VClass@OAT@LIEF@@@std@@@std@@V?$allocator@V?$unique_ptr@VClass@OAT@LIEF@@U?$default_delete@VClass@OAT@LIEF@@@std@@@std@@@2@@std@@PEAVClass@OAT@LIEF@@V?$_Vector_iterator@V?$_Vector_val@U?$_Simple_types@V?$unique_ptr@VClass@OAT@LIEF@@U?$default_delete@VClass@OAT@LIEF@@@std@@@std@@@std@@@std@@@2@@3@XZ
?classes@Binary@OAT@LIEF@@QEBA?AV?$ref_iterator@AEBV?$vector@V?$unique_ptr@VClass@OAT@LIEF@@U?$default_delete@VClass@OAT@LIEF@@@std@@@std@@V?$allocator@V?$unique_ptr@VClass@OAT@LIEF@@U?$default_delete@VClass@OAT@LIEF@@@std@@@std@@@2@@std@@PEBVClass@OAT@LIEF@@V?$_Vector_const_iterator@V?$_Vector_val@U?$_Simple_types@V?$unique_ptr@VClass@OAT@LIEF@@U?$default_delete@VClass@OAT@LIEF@@@std@@@std@@@std@@@std@@@2@@3@XZ
?classes@File@DEX@LIEF@@QEAA?AV?$ref_iterator@AEAV?$vector@V?$unique_ptr@VClass@DEX@LIEF@@U?$default_delete@VClass@DEX@LIEF@@@std@@@std@@V?$allocator@V?$unique_ptr@VClass@DEX@LIEF@@U?$default_delete@VClass@DEX@LIEF@@@std@@@std@@@2@@std@@PEAVClass@DEX@LIEF@@V?$_Vector_iterator@V?$_Vector_val@U?$_Simple_types@V?$unique_ptr@VClass@DEX@LIEF@@U?$default_delete@VClass@DEX@LIEF@@@std@@@std@@@std@@@std@@@2@@3@XZ
?classes@File@DEX@LIEF@@QEBA?AV?$ref_iterator@AEBV?$vector@V?$unique_ptr@VClass@DEX@LIEF@@U?$default_delete@VClass@DEX@LIEF@@@std@@@std@@V?$allocator@V?$unique_ptr@VClass@DEX@LIEF@@U?$default_delete@VClass@DEX@LIEF@@@std@@@std@@@2@@std@@PEBVClass@DEX@LIEF@@V?$_Vector_const_iterator@V?$_Vector_val@U?$_Simple_types@V?$unique_ptr@VClass@DEX@LIEF@@U?$default_delete@VClass@DEX@LIEF@@@std@@@std@@@std@@@std@@@2@@3@XZ
?classes@Header@DEX@LIEF@@QEBA?AU?$pair@II@std@@XZ
?classes_offsets@DexFile@OAT@LIEF@@QEBAAEBV?$vector@IV?$allocator@I@std@@@std@@XZ
?classof@BuildVersion@MachO@LIEF@@SA_NPEBVLoadCommand@23@@Z
?classof@CodeSignature@MachO@LIEF@@SA_NPEBVLoadCommand@23@@Z
?classof@DataInCode@MachO@LIEF@@SA_NPEBVLoadCommand@23@@Z
?classof@DyldEnvironment@MachO@LIEF@@SA_NPEBVLoadCommand@23@@Z
?classof@DyldInfo@MachO@LIEF@@SA_NPEBVLoadCommand@23@@Z
?classof@DylibCommand@MachO@LIEF@@SA_NPEBVLoadCommand@23@@Z
?classof@DylinkerCommand@MachO@LIEF@@SA_NPEBVLoadCommand@23@@Z
?classof@DynamicEntryArray@ELF@LIEF@@SA_NPEBVDynamicEntry@23@@Z
?classof@DynamicEntryFlags@ELF@LIEF@@SA_NPEBVDynamicEntry@23@@Z
?classof@DynamicEntryLibrary@ELF@LIEF@@SA_NPEBVDynamicEntry@23@@Z
?classof@DynamicEntryRpath@ELF@LIEF@@SA_NPEBVDynamicEntry@23@@Z
?classof@DynamicEntryRunPath@ELF@LIEF@@SA_NPEBVDynamicEntry@23@@Z
?classof@DynamicSharedObject@ELF@LIEF@@SA_NPEBVDynamicEntry@23@@Z
?classof@DynamicSymbolCommand@MachO@LIEF@@SA_NPEBVLoadCommand@23@@Z
?classof@EncryptionInfo@MachO@LIEF@@SA_NPEBVLoadCommand@23@@Z
?classof@FilesetCommand@MachO@LIEF@@SA_NPEBVLoadCommand@23@@Z
?classof@FunctionStarts@MachO@LIEF@@SA_NPEBVLoadCommand@23@@Z
?classof@MainCommand@MachO@LIEF@@SA_NPEBVLoadCommand@23@@Z
?classof@RPathCommand@MachO@LIEF@@SA_NPEBVLoadCommand@23@@Z
?classof@RelocationDyld@MachO@LIEF@@SA_NAEBVRelocation@23@@Z
?classof@RelocationObject@MachO@LIEF@@SA_NAEBVRelocation@23@@Z
?classof@SegmentCommand@MachO@LIEF@@SA_NPEBVLoadCommand@23@@Z
?classof@SegmentSplitInfo@MachO@LIEF@@SA_NPEBVLoadCommand@23@@Z
?classof@SourceVersion@MachO@LIEF@@SA_NPEBVLoadCommand@23@@Z
?classof@SubFramework@MachO@LIEF@@SA_NPEBVLoadCommand@23@@Z
?classof@SymbolCommand@MachO@LIEF@@SA_NPEBVLoadCommand@23@@Z
?classof@ThreadCommand@MachO@LIEF@@SA_NPEBVLoadCommand@23@@Z
?classof@UUIDCommand@MachO@LIEF@@SA_NPEBVLoadCommand@23@@Z
?classof@VersionMin@MachO@LIEF@@SA_NPEBVLoadCommand@23@@Z
?clear@Section@ELF@LIEF@@QEAAAEAV123@E@Z
?clear@Section@MachO@LIEF@@QEAAXE@Z
?clear@Section@PE@LIEF@@QEAAXE@Z
?clear_flags@Section@ELF@LIEF@@QEAAXXZ
?clear_flags@Segment@ELF@LIEF@@QEAAXXZ
?clone@AndroidNote@ELF@LIEF@@UEBAPEAV123@XZ
?clone@BuildVersion@MachO@LIEF@@UEBAPEAV123@XZ
?clone@CodeSignature@MachO@LIEF@@UEBAPEAV123@XZ
?clone@CodeViewPDB@PE@LIEF@@UEBAPEAV123@XZ
?clone@ContentType@PE@LIEF@@UEBA?AV?$unique_ptr@VAttribute@PE@LIEF@@U?$default_delete@VAttribute@PE@LIEF@@@std@@@std@@XZ
?clone@CoreAuxv@ELF@LIEF@@UEBAPEAV123@XZ
?clone@CoreFile@ELF@LIEF@@UEBAPEAV123@XZ
?clone@CorePrPsInfo@ELF@LIEF@@UEBAPEAV123@XZ
?clone@CorePrStatus@ELF@LIEF@@UEBAPEAV123@XZ
?clone@CoreSigInfo@ELF@LIEF@@UEBAPEAV123@XZ
?clone@DataInCode@MachO@LIEF@@UEBAPEAV123@XZ
?clone@DyldEnvironment@MachO@LIEF@@UEBAPEAV123@XZ
?clone@DyldInfo@MachO@LIEF@@UEBAPEAV123@XZ
?clone@DylibCommand@MachO@LIEF@@UEBAPEAV123@XZ
?clone@DylinkerCommand@MachO@LIEF@@UEBAPEAV123@XZ
?clone@DynamicSymbolCommand@MachO@LIEF@@UEBAPEAV123@XZ
?clone@FilesetCommand@MachO@LIEF@@UEBAPEAV123@XZ
?clone@FunctionStarts@MachO@LIEF@@UEBAPEAV123@XZ
?clone@GenericType@PE@LIEF@@UEBA?AV?$unique_ptr@VAttribute@PE@LIEF@@U?$default_delete@VAttribute@PE@LIEF@@@std@@@std@@XZ
?clone@LoadCommand@MachO@LIEF@@UEBAPEAV123@XZ
?clone@MainCommand@MachO@LIEF@@UEBAPEAV123@XZ
?clone@MsSpcNestedSignature@PE@LIEF@@UEBA?AV?$unique_ptr@VAttribute@PE@LIEF@@U?$default_delete@VAttribute@PE@LIEF@@@std@@@std@@XZ
?clone@MsSpcStatementType@PE@LIEF@@UEBA?AV?$unique_ptr@VAttribute@PE@LIEF@@U?$default_delete@VAttribute@PE@LIEF@@@std@@@std@@XZ
?clone@NoteAbi@ELF@LIEF@@UEBAPEAV123@XZ
?clone@NoteDetails@ELF@LIEF@@UEBAPEAV123@XZ
?clone@PKCS9AtSequenceNumber@PE@LIEF@@UEBA?AV?$unique_ptr@VAttribute@PE@LIEF@@U?$default_delete@VAttribute@PE@LIEF@@@std@@@std@@XZ
?clone@PKCS9CounterSignature@PE@LIEF@@UEBA?AV?$unique_ptr@VAttribute@PE@LIEF@@U?$default_delete@VAttribute@PE@LIEF@@@std@@@std@@XZ
?clone@PKCS9MessageDigest@PE@LIEF@@UEBA?AV?$unique_ptr@VAttribute@PE@LIEF@@U?$default_delete@VAttribute@PE@LIEF@@@std@@@std@@XZ
?clone@PKCS9SigningTime@PE@LIEF@@UEBA?AV?$unique_ptr@VAttribute@PE@LIEF@@U?$default_delete@VAttribute@PE@LIEF@@@std@@@std@@XZ
?clone@Pogo@PE@LIEF@@UEBAPEAV123@XZ
?clone@RPathCommand@MachO@LIEF@@UEBAPEAV123@XZ
?clone@RelocationDyld@MachO@LIEF@@UEBAPEAVRelocation@23@XZ
?clone@RelocationObject@MachO@LIEF@@UEBAPEAV123@XZ
?clone@ResourceData@PE@LIEF@@UEBAPEAV123@XZ
?clone@ResourceDirectory@PE@LIEF@@UEBAPEAV123@XZ
?clone@SegmentCommand@MachO@LIEF@@UEBAPEAV123@XZ
?clone@SegmentSplitInfo@MachO@LIEF@@UEBAPEAV123@XZ
?clone@SourceVersion@MachO@LIEF@@UEBAPEAV123@XZ
?clone@SpcSpOpusInfo@PE@LIEF@@UEBA?AV?$unique_ptr@VAttribute@PE@LIEF@@U?$default_delete@VAttribute@PE@LIEF@@@std@@@std@@XZ
?clone@SubFramework@MachO@LIEF@@UEBAPEAV123@XZ
?clone@SymbolCommand@MachO@LIEF@@UEBAPEAV123@XZ
?clone@ThreadCommand@MachO@LIEF@@UEBAPEAV123@XZ
?clone@UUIDCommand@MachO@LIEF@@UEBAPEAV123@XZ
?clone@VersionMin@MachO@LIEF@@UEBAPEAV123@XZ
?cls@Field@DEX@LIEF@@QEAAPEAVClass@23@XZ
?cls@Field@DEX@LIEF@@QEBAPEBVClass@23@XZ
?cls@Method@DEX@LIEF@@QEAAPEAVClass@23@XZ
?cls@Method@DEX@LIEF@@QEBAPEBVClass@23@XZ
?cls@Type@DEX@LIEF@@QEAAAEAVClass@23@XZ
?cls@Type@DEX@LIEF@@QEBAAEBVClass@23@XZ
?cnt@SymbolVersionRequirement@ELF@LIEF@@QEBAIXZ
?code_integrity@LoadConfigurationV2@PE@LIEF@@QEAAAEAVCodeIntegrity@23@XZ
?code_integrity@LoadConfigurationV2@PE@LIEF@@QEBAAEBVCodeIntegrity@23@XZ
?code_name@Android@LIEF@@YAPEBDW4ANDROID_VERSIONS@12@@Z
?code_offset@Method@DEX@LIEF@@QEBA_KXZ
?code_page@LangCodeItem@PE@LIEF@@QEAAXW4CODE_PAGES@23@@Z
?code_page@LangCodeItem@PE@LIEF@@QEBA?AW4CODE_PAGES@23@XZ
?code_page@ResourceData@PE@LIEF@@QEAAXI@Z
?code_page@ResourceData@PE@LIEF@@QEBAIXZ
?code_signature@Binary@MachO@LIEF@@QEAAPEAVCodeSignature@23@XZ
?code_signature@Binary@MachO@LIEF@@QEBAPEBVCodeSignature@23@XZ
?code_signature_dir@Binary@MachO@LIEF@@QEAAPEAVCodeSignature@23@XZ
?code_signature_dir@Binary@MachO@LIEF@@QEBAPEBVCodeSignature@23@XZ
?code_view@Debug@PE@LIEF@@QEAAPEAVCodeView@23@XZ
?code_view@Debug@PE@LIEF@@QEBAPEBVCodeView@23@XZ
?color_count@ResourceIcon@PE@LIEF@@QEAAXE@Z
?color_count@ResourceIcon@PE@LIEF@@QEBAEXZ
?command@LoadCommand@MachO@LIEF@@QEAAXW4LOAD_COMMAND_TYPES@23@@Z
?command@LoadCommand@MachO@LIEF@@QEBA?AW4LOAD_COMMAND_TYPES@23@XZ
?command_offset@LoadCommand@MachO@LIEF@@QEAAX_K@Z
?command_offset@LoadCommand@MachO@LIEF@@QEBA_KXZ
?commands@Binary@MachO@LIEF@@QEAA?AV?$ref_iterator@AEAV?$vector@V?$unique_ptr@VLoadCommand@MachO@LIEF@@U?$default_delete@VLoadCommand@MachO@LIEF@@@std@@@std@@V?$allocator@V?$unique_ptr@VLoadCommand@MachO@LIEF@@U?$default_delete@VLoadCommand@MachO@LIEF@@@std@@@std@@@2@@std@@PEAVLoadCommand@MachO@LIEF@@V?$_Vector_iterator@V?$_Vector_val@U?$_Simple_types@V?$unique_ptr@VLoadCommand@MachO@LIEF@@U?$default_delete@VLoadCommand@MachO@LIEF@@@std@@@std@@@std@@@std@@@2@@3@XZ
?commands@Binary@MachO@LIEF@@QEBA?AV?$ref_iterator@AEBV?$vector@V?$unique_ptr@VLoadCommand@MachO@LIEF@@U?$default_delete@VLoadCommand@MachO@LIEF@@@std@@@std@@V?$allocator@V?$unique_ptr@VLoadCommand@MachO@LIEF@@U?$default_delete@VLoadCommand@MachO@LIEF@@@std@@@std@@@2@@std@@PEAVLoadCommand@MachO@LIEF@@V?$_Vector_const_iterator@V?$_Vector_val@U?$_Simple_types@V?$unique_ptr@VLoadCommand@MachO@LIEF@@U?$default_delete@VLoadCommand@MachO@LIEF@@@std@@@std@@@std@@@std@@@2@@3@XZ
?compatibility_version@DylibCommand@MachO@LIEF@@QEAAXV?$array@G$02@std@@@Z
?compatibility_version@DylibCommand@MachO@LIEF@@QEBA?AV?$array@G$02@std@@XZ
?compile_pic@Header@ART@LIEF@@QEBA_NXZ
?complex_type@Symbol@PE@LIEF@@QEBA?AW4SYMBOL_COMPLEX_TYPES@23@XZ
?compute_resources_size@Builder@PE@LIEF@@IEAA?AV?$result@Uok_t@LIEF@@@leaf@boost@@AEAVResourceNode@23@PEAI11@Z
?computed_checksum@OptionalHeader@PE@LIEF@@QEBAIXZ
?construct_resources@Builder@PE@LIEF@@IEAA?AV?$result@Uok_t@LIEF@@@leaf@boost@@AEAVResourceNode@23@PEAV?$vector@EV?$allocator@E@std@@@std@@PEAI22II@Z
?content@Handler@DataHandler@ELF@LIEF@@QEAAAEAV?$vector@EV?$allocator@E@std@@@std@@XZ
?content@Handler@DataHandler@ELF@LIEF@@QEBAAEBV?$vector@EV?$allocator@E@std@@@std@@XZ
?content@ResourceData@PE@LIEF@@QEAAXAEBV?$vector@EV?$allocator@E@std@@@std@@@Z
?content@ResourceData@PE@LIEF@@QEBAAEBV?$vector@EV?$allocator@E@std@@@std@@XZ
?content@Section@ELF@LIEF@@QEAAX$$QEAV?$vector@EV?$allocator@E@std@@@std@@@Z
?content@Section@ELF@LIEF@@UEAAXAEBV?$vector@EV?$allocator@E@std@@@std@@@Z
?content@Section@ELF@LIEF@@UEBA?AV?$span@$$CBE$0?0@tcb@@XZ
?content@Section@LIEF@@UEAAXAEBV?$vector@EV?$allocator@E@std@@@std@@@Z
?content@Section@LIEF@@UEBA?AV?$span@$$CBE$0?0@tcb@@XZ
?content@Section@MachO@LIEF@@UEAAXAEBV?$vector@EV?$allocator@E@std@@@std@@@Z
?content@Section@MachO@LIEF@@UEBA?AV?$span@$$CBE$0?0@tcb@@XZ
?content@Section@PE@LIEF@@UEAAXAEBV?$vector@EV?$allocator@E@std@@@std@@@Z
?content@Section@PE@LIEF@@UEBA?AV?$span@$$CBE$0?0@tcb@@XZ
?content@Segment@ELF@LIEF@@QEAAXV?$vector@EV?$allocator@E@std@@@std@@@Z
?content@Segment@ELF@LIEF@@QEBA?AV?$span@$$CBE$0?0@tcb@@XZ
?content@SegmentCommand@MachO@LIEF@@QEAAXV?$vector@EV?$allocator@E@std@@@std@@@Z
?content@SegmentCommand@MachO@LIEF@@QEBA?AV?$span@$$CBE$0?0@tcb@@XZ
?content_extend@SegmentCommand@MachO@LIEF@@AEAAX_K@Z
?content_info@Signature@PE@LIEF@@QEBAAEBVContentInfo@23@XZ
?content_insert@SegmentCommand@MachO@LIEF@@AEAAX_K0@Z
?content_resize@SegmentCommand@MachO@LIEF@@AEAAX_K@Z
?content_type@ContentInfo@PE@LIEF@@QEBA?AV?$basic_string@DU?$char_traits@D@std@@V?$allocator@D@2@@std@@XZ
?count@CoreFile@ELF@LIEF@@QEBA_KXZ
?count@RichEntry@PE@LIEF@@QEAAXI@Z
?count@RichEntry@PE@LIEF@@QEBAIXZ
?count@ThreadCommand@MachO@LIEF@@QEAAXI@Z
?count@ThreadCommand@MachO@LIEF@@QEBAIXZ
?cpu_subtype@Header@MachO@LIEF@@QEAAXI@Z
?cpu_subtype@Header@MachO@LIEF@@QEBAIXZ
?cpu_type@Header@MachO@LIEF@@QEAAXW4CPU_TYPES@23@@Z
?cpu_type@Header@MachO@LIEF@@QEBA?AW4CPU_TYPES@23@XZ
?create@DylibCommand@MachO@LIEF@@CA?AV123@W4LOAD_COMMAND_TYPES@23@AEBV?$basic_string@DU?$char_traits@D@std@@V?$allocator@D@2@@std@@III@Z
?create@Handler@DataHandler@ELF@LIEF@@QEAAAEAVNode@234@_K0W4Type@5234@@Z
?critical_section_default_timeout@LoadConfiguration@PE@LIEF@@QEAAXI@Z
?critical_section_default_timeout@LoadConfiguration@PE@LIEF@@QEBAIXZ
?crypt_id@EncryptionInfo@MachO@LIEF@@QEAAXI@Z
?crypt_id@EncryptionInfo@MachO@LIEF@@QEBAIXZ
?crypt_offset@EncryptionInfo@MachO@LIEF@@QEAAXI@Z
?crypt_offset@EncryptionInfo@MachO@LIEF@@QEBAIXZ
?crypt_size@EncryptionInfo@MachO@LIEF@@QEAAXI@Z
?crypt_size@EncryptionInfo@MachO@LIEF@@QEBAIXZ
?csd_version@LoadConfiguration@PE@LIEF@@QEAAXG@Z
?csd_version@LoadConfiguration@PE@LIEF@@QEBAGXZ
?cstime@CorePrStatus@ELF@LIEF@@QEAAXUtimeval_t@123@@Z
?cstime@CorePrStatus@ELF@LIEF@@QEBA?AUtimeval_t@123@XZ
?ctor_functions@Binary@ELF@LIEF@@UEBA?AV?$vector@VFunction@LIEF@@V?$allocator@VFunction@LIEF@@@std@@@std@@XZ
?ctor_functions@Binary@MachO@LIEF@@UEBA?AV?$vector@VFunction@LIEF@@V?$allocator@VFunction@LIEF@@@std@@@std@@XZ
?ctor_functions@Binary@PE@LIEF@@UEBA?AV?$vector@VFunction@LIEF@@V?$allocator@VFunction@LIEF@@@std@@@std@@XZ
?current_offset@SignatureParser@PE@LIEF@@AEBA_KXZ
?current_sig@CorePrStatus@ELF@LIEF@@QEAAXG@Z
?current_sig@CorePrStatus@ELF@LIEF@@QEBAGXZ
?current_version@DylibCommand@MachO@LIEF@@QEAAXV?$array@G$02@std@@@Z
?current_version@DylibCommand@MachO@LIEF@@QEBA?AV?$array@G$02@std@@XZ
?cutime@CorePrStatus@ELF@LIEF@@QEAAXUtimeval_t@123@@Z
?cutime@CorePrStatus@ELF@LIEF@@QEBA?AUtimeval_t@123@XZ
?cv_signature@CodeView@PE@LIEF@@QEBA?AW4CODE_VIEW_SIGNATURES@23@XZ
?cx@ResourceDialog@PE@LIEF@@QEBAFXZ
?cx@ResourceDialogItem@PE@LIEF@@QEBAFXZ
?cy@ResourceDialog@PE@LIEF@@QEBAFXZ
?cy@ResourceDialogItem@PE@LIEF@@QEBAFXZ
?data@DelayImportEntry@PE@LIEF@@QEAAX_K@Z
?data@DelayImportEntry@PE@LIEF@@QEBA_KXZ
?data@Header@DEX@LIEF@@QEBA?AU?$pair@II@std@@XZ
?data@ImportEntry@PE@LIEF@@QEAAX_K@Z
?data@ImportEntry@PE@LIEF@@QEBA_KXZ
?data@LoadCommand@MachO@LIEF@@QEAAXAEBV?$vector@EV?$allocator@E@std@@@std@@@Z
?data@LoadCommand@MachO@LIEF@@QEBAAEBV?$vector@EV?$allocator@E@std@@@std@@XZ
?data@RelocationEntry@PE@LIEF@@QEAAXG@Z
?data@RelocationEntry@PE@LIEF@@QEBAGXZ
?data_directories@Binary@PE@LIEF@@QEAA?AV?$ref_iterator@AEAV?$vector@V?$unique_ptr@VDataDirectory@PE@LIEF@@U?$default_delete@VDataDirectory@PE@LIEF@@@std@@@std@@V?$allocator@V?$unique_ptr@VDataDirectory@PE@LIEF@@U?$default_delete@VDataDirectory@PE@LIEF@@@std@@@std@@@2@@std@@PEAVDataDirectory@PE@LIEF@@V?$_Vector_iterator@V?$_Vector_val@U?$_Simple_types@V?$unique_ptr@VDataDirectory@PE@LIEF@@U?$default_delete@VDataDirectory@PE@LIEF@@@std@@@std@@@std@@@std@@@2@@3@XZ
?data_directories@Binary@PE@LIEF@@QEBA?AV?$ref_iterator@AEBV?$vector@V?$unique_ptr@VDataDirectory@PE@LIEF@@U?$default_delete@VDataDirectory@PE@LIEF@@@std@@@std@@V?$allocator@V?$unique_ptr@VDataDirectory@PE@LIEF@@U?$default_delete@VDataDirectory@PE@LIEF@@@std@@@std@@@2@@std@@PEBVDataDirectory@PE@LIEF@@V?$_Vector_const_iterator@V?$_Vector_val@U?$_Simple_types@V?$unique_ptr@VDataDirectory@PE@LIEF@@U?$default_delete@VDataDirectory@PE@LIEF@@@std@@@std@@@std@@@std@@@2@@3@XZ
?data_directory@Binary@PE@LIEF@@QEAAAEAVDataDirectory@23@W4DATA_DIRECTORY@23@@Z
?data_directory@Binary@PE@LIEF@@QEBAAEBVDataDirectory@23@W4DATA_DIRECTORY@23@@Z
?data_in_code@Binary@MachO@LIEF@@QEAAPEAVDataInCode@23@XZ
?data_in_code@Binary@MachO@LIEF@@QEBAPEBVDataInCode@23@XZ
?data_offset@CodeSignature@MachO@LIEF@@QEAAXI@Z
?data_offset@CodeSignature@MachO@LIEF@@QEBAIXZ
?data_offset@DataInCode@MachO@LIEF@@QEAAXI@Z
?data_offset@DataInCode@MachO@LIEF@@QEBAIXZ
?data_offset@FunctionStarts@MachO@LIEF@@QEAAXI@Z
?data_offset@FunctionStarts@MachO@LIEF@@QEBAIXZ
?data_offset@SegmentSplitInfo@MachO@LIEF@@QEAAXI@Z
?data_offset@SegmentSplitInfo@MachO@LIEF@@QEBAIXZ
?data_size@CodeSignature@MachO@LIEF@@QEAAXI@Z
?data_size@CodeSignature@MachO@LIEF@@QEBAIXZ
?data_size@DataInCode@MachO@LIEF@@QEAAXI@Z
?data_size@DataInCode@MachO@LIEF@@QEBAIXZ
?data_size@FunctionStarts@MachO@LIEF@@QEAAXI@Z
?data_size@FunctionStarts@MachO@LIEF@@QEBAIXZ
?data_size@Header@ART@LIEF@@QEBAIXZ
?data_size@SegmentSplitInfo@MachO@LIEF@@QEAAXI@Z
?data_size@SegmentSplitInfo@MachO@LIEF@@QEBAIXZ
?data_template@TLS@PE@LIEF@@QEAAXAEBV?$vector@EV?$allocator@E@std@@@std@@@Z
?data_template@TLS@PE@LIEF@@QEBAAEBV?$vector@EV?$allocator@E@std@@@std@@XZ
?debug@Binary@PE@LIEF@@QEAAAEAV?$vector@VDebug@PE@LIEF@@V?$allocator@VDebug@PE@LIEF@@@std@@@std@@XZ
?debug@Binary@PE@LIEF@@QEBAAEBV?$vector@VDebug@PE@LIEF@@V?$allocator@VDebug@PE@LIEF@@@std@@@std@@XZ
?decommit_free_block_threshold@LoadConfiguration@PE@LIEF@@QEAAX_K@Z
?decommit_free_block_threshold@LoadConfiguration@PE@LIEF@@QEBA_KXZ
?decommit_total_free_threshold@LoadConfiguration@PE@LIEF@@QEAAX_K@Z
?decommit_total_free_threshold@LoadConfiguration@PE@LIEF@@QEBA_KXZ
?deep@ParserConfig@MachO@LIEF@@SA?AU123@XZ
?delay_imports@Binary@PE@LIEF@@QEAA?AV?$ref_iterator@AEAV?$vector@VDelayImport@PE@LIEF@@V?$allocator@VDelayImport@PE@LIEF@@@std@@@std@@VDelayImport@PE@LIEF@@V?$_Vector_iterator@V?$_Vector_val@U?$_Simple_types@VDelayImport@PE@LIEF@@@std@@@std@@@2@@3@XZ
?delay_imports@Binary@PE@LIEF@@QEBA?AV?$ref_iterator@AEBV?$vector@VDelayImport@PE@LIEF@@V?$allocator@VDelayImport@PE@LIEF@@@std@@@std@@VDelayImport@PE@LIEF@@V?$_Vector_const_iterator@V?$_Vector_val@U?$_Simple_types@VDelayImport@PE@LIEF@@@std@@@std@@@2@@3@XZ
?delete_child@ResourceNode@PE@LIEF@@QEAAXAEBV123@@Z
?delete_child@ResourceNode@PE@LIEF@@QEAAXI@Z
?delimiter@DynamicEntryRpath@ELF@LIEF@@2DB
?delimiter@DynamicEntryRunPath@ELF@LIEF@@2DB
?demangled_name@Symbol@ELF@LIEF@@QEBA?AV?$basic_string@DU?$char_traits@D@std@@V?$allocator@D@2@@std@@XZ
?demangled_name@Symbol@MachO@LIEF@@QEBA?AV?$basic_string@DU?$char_traits@D@std@@V?$allocator@D@2@@std@@XZ
?deoptimize_instance_field_access@File@DEX@LIEF@@CAXPEAEIW4OPCODES@23@@Z
?deoptimize_invoke_virtual@File@DEX@LIEF@@CAXPEAEIW4OPCODES@23@@Z
?deoptimize_nop@File@DEX@LIEF@@CAXPEAEI@Z
?deoptimize_return@File@DEX@LIEF@@CAXPEAEI@Z
?dependent_load_flags@LoadConfiguration@PE@LIEF@@QEAAXG@Z
?dependent_load_flags@LoadConfiguration@PE@LIEF@@QEBAGXZ
?depth@ResourceNode@PE@LIEF@@QEBAIXZ
?description@Note@ELF@LIEF@@QEAAAEAV?$vector@EV?$allocator@E@std@@@std@@XZ
?description@Note@ELF@LIEF@@QEAAXAEBV?$vector@EV?$allocator@E@std@@@std@@@Z
?description@Note@ELF@LIEF@@QEBAAEBV?$vector@EV?$allocator@E@std@@@std@@XZ
?description@NoteDetails@ELF@LIEF@@IEAAAEAV?$vector@EV?$allocator@E@std@@@std@@XZ
?description@NoteDetails@ELF@LIEF@@QEBAAEBV?$vector@EV?$allocator@E@std@@@std@@XZ
?description@Symbol@MachO@LIEF@@QEAAXG@Z
?description@Symbol@MachO@LIEF@@QEBAGXZ
?details@Note@ELF@LIEF@@QEAAAEAVNoteDetails@23@XZ
?details@Note@ELF@LIEF@@QEBAAEBVNoteDetails@23@XZ
?dex2dex_info@Binary@OAT@LIEF@@QEBA?AV?$unordered_map@PEBVFile@DEX@LIEF@@V?$unordered_map@PEAVClass@DEX@LIEF@@V?$unordered_map@PEAVMethod@DEX@LIEF@@V?$unordered_map@IIU?$hash@I@std@@U?$equal_to@I@2@V?$allocator@U?$pair@$$CBII@std@@@2@@std@@U?$hash@PEAVMethod@DEX@LIEF@@@5@U?$equal_to@PEAVMethod@DEX@LIEF@@@5@V?$allocator@U?$pair@QEAVMethod@DEX@LIEF@@V?$unordered_map@IIU?$hash@I@std@@U?$equal_to@I@2@V?$allocator@U?$pair@$$CBII@std@@@2@@std@@@std@@@5@@std@@U?$hash@PEAVClass@DEX@LIEF@@@5@U?$equal_to@PEAVClass@DEX@LIEF@@@5@V?$allocator@U?$pair@QEAVClass@DEX@LIEF@@V?$unordered_map@PEAVMethod@DEX@LIEF@@V?$unordered_map@IIU?$hash@I@std@@U?$equal_to@I@2@V?$allocator@U?$pair@$$CBII@std@@@2@@std@@U?$hash@PEAVMethod@DEX@LIEF@@@5@U?$equal_to@PEAVMethod@DEX@LIEF@@@5@V?$allocator@U?$pair@QEAVMethod@DEX@LIEF@@V?$unordered_map@IIU?$hash@I@std@@U?$equal_to@I@2@V?$allocator@U?$pair@$$CBII@std@@@2@@std@@@std@@@5@@std@@@std@@@5@@std@@U?$hash@PEBVFile@DEX@LIEF@@@5@U?$equal_to@PEBVFile@DEX@LIEF@@@5@V?$allocator@U?$pair@QEBVFile@DEX@LIEF@@V?$unordered_map@PEAVClass@DEX@LIEF@@V?$unordered_map@PEAVMethod@DEX@LIEF@@V?$unordered_map@IIU?$hash@I@std@@U?$equal_to@I@2@V?$allocator@U?$pair@$$CBII@std@@@2@@std@@U?$hash@PEAVMethod@DEX@LIEF@@@5@U?$equal_to@PEAVMethod@DEX@LIEF@@@5@V?$allocator@U?$pair@QEAVMethod@DEX@LIEF@@V?$unordered_map@IIU?$hash@I@std@@U?$equal_to@I@2@V?$allocator@U?$pair@$$CBII@std@@@2@@std@@@std@@@5@@std@@U?$hash@PEAVClass@DEX@LIEF@@@5@U?$equal_to@PEAVClass@DEX@LIEF@@@5@V?$allocator@U?$pair@QEAVClass@DEX@LIEF@@V?$unordered_map@PEAVMethod@DEX@LIEF@@V?$unordered_map@IIU?$hash@I@std@@U?$equal_to@I@2@V?$allocator@U?$pair@$$CBII@std@@@2@@std@@U?$hash@PEAVMethod@DEX@LIEF@@@5@U?$equal_to@PEAVMethod@DEX@LIEF@@@5@V?$allocator@U?$pair@QEAVMethod@DEX@LIEF@@V?$unordered_map@IIU?$hash@I@std@@U?$equal_to@I@2@V?$allocator@U?$pair@$$CBII@std@@@2@@std@@@std@@@5@@std@@@std@@@5@@std@@@std@@@5@@std@@XZ
?dex2dex_info@Class@DEX@LIEF@@QEBA?AV?$unordered_map@PEAVMethod@DEX@LIEF@@V?$unordered_map@IIU?$hash@I@std@@U?$equal_to@I@2@V?$allocator@U?$pair@$$CBII@std@@@2@@std@@U?$hash@PEAVMethod@DEX@LIEF@@@5@U?$equal_to@PEAVMethod@DEX@LIEF@@@5@V?$allocator@U?$pair@QEAVMethod@DEX@LIEF@@V?$unordered_map@IIU?$hash@I@std@@U?$equal_to@I@2@V?$allocator@U?$pair@$$CBII@std@@@2@@std@@@std@@@5@@std@@XZ
?dex2dex_info@Class@OAT@LIEF@@QEBA?AV?$unordered_map@PEAVMethod@DEX@LIEF@@V?$unordered_map@IIU?$hash@I@std@@U?$equal_to@I@2@V?$allocator@U?$pair@$$CBII@std@@@2@@std@@U?$hash@PEAVMethod@DEX@LIEF@@@5@U?$equal_to@PEAVMethod@DEX@LIEF@@@5@V?$allocator@U?$pair@QEAVMethod@DEX@LIEF@@V?$unordered_map@IIU?$hash@I@std@@U?$equal_to@I@2@V?$allocator@U?$pair@$$CBII@std@@@2@@std@@@std@@@5@@std@@XZ
?dex2dex_info@File@DEX@LIEF@@QEBA?AV?$unordered_map@PEAVClass@DEX@LIEF@@V?$unordered_map@PEAVMethod@DEX@LIEF@@V?$unordered_map@IIU?$hash@I@std@@U?$equal_to@I@2@V?$allocator@U?$pair@$$CBII@std@@@2@@std@@U?$hash@PEAVMethod@DEX@LIEF@@@5@U?$equal_to@PEAVMethod@DEX@LIEF@@@5@V?$allocator@U?$pair@QEAVMethod@DEX@LIEF@@V?$unordered_map@IIU?$hash@I@std@@U?$equal_to@I@2@V?$allocator@U?$pair@$$CBII@std@@@2@@std@@@std@@@5@@std@@U?$hash@PEAVClass@DEX@LIEF@@@5@U?$equal_to@PEAVClass@DEX@LIEF@@@5@V?$allocator@U?$pair@QEAVClass@DEX@LIEF@@V?$unordered_map@PEAVMethod@DEX@LIEF@@V?$unordered_map@IIU?$hash@I@std@@U?$equal_to@I@2@V?$allocator@U?$pair@$$CBII@std@@@2@@std@@U?$hash@PEAVMethod@DEX@LIEF@@@5@U?$equal_to@PEAVMethod@DEX@LIEF@@@5@V?$allocator@U?$pair@QEAVMethod@DEX@LIEF@@V?$unordered_map@IIU?$hash@I@std@@U?$equal_to@I@2@V?$allocator@U?$pair@$$CBII@std@@@2@@std@@@std@@@5@@std@@@std@@@5@@std@@XZ
?dex2dex_info@File@VDEX@LIEF@@QEBA?AV?$unordered_map@PEBVFile@DEX@LIEF@@V?$unordered_map@PEAVClass@DEX@LIEF@@V?$unordered_map@PEAVMethod@DEX@LIEF@@V?$unordered_map@IIU?$hash@I@std@@U?$equal_to@I@2@V?$allocator@U?$pair@$$CBII@std@@@2@@std@@U?$hash@PEAVMethod@DEX@LIEF@@@5@U?$equal_to@PEAVMethod@DEX@LIEF@@@5@V?$allocator@U?$pair@QEAVMethod@DEX@LIEF@@V?$unordered_map@IIU?$hash@I@std@@U?$equal_to@I@2@V?$allocator@U?$pair@$$CBII@std@@@2@@std@@@std@@@5@@std@@U?$hash@PEAVClass@DEX@LIEF@@@5@U?$equal_to@PEAVClass@DEX@LIEF@@@5@V?$allocator@U?$pair@QEAVClass@DEX@LIEF@@V?$unordered_map@PEAVMethod@DEX@LIEF@@V?$unordered_map@IIU?$hash@I@std@@U?$equal_to@I@2@V?$allocator@U?$pair@$$CBII@std@@@2@@std@@U?$hash@PEAVMethod@DEX@LIEF@@@5@U?$equal_to@PEAVMethod@DEX@LIEF@@@5@V?$allocator@U?$pair@QEAVMethod@DEX@LIEF@@V?$unordered_map@IIU?$hash@I@std@@U?$equal_to@I@2@V?$allocator@U?$pair@$$CBII@std@@@2@@std@@@std@@@5@@std@@@std@@@5@@std@@U?$hash@PEBVFile@DEX@LIEF@@@5@U?$equal_to@PEBVFile@DEX@LIEF@@@5@V?$allocator@U?$pair@QEBVFile@DEX@LIEF@@V?$unordered_map@PEAVClass@DEX@LIEF@@V?$unordered_map@PEAVMethod@DEX@LIEF@@V?$unordered_map@IIU?$hash@I@std@@U?$equal_to@I@2@V?$allocator@U?$pair@$$CBII@std@@@2@@std@@U?$hash@PEAVMethod@DEX@LIEF@@@5@U?$equal_to@PEAVMethod@DEX@LIEF@@@5@V?$allocator@U?$pair@QEAVMethod@DEX@LIEF@@V?$unordered_map@IIU?$hash@I@std@@U?$equal_to@I@2@V?$allocator@U?$pair@$$CBII@std@@@2@@std@@@std@@@5@@std@@U?$hash@PEAVClass@DEX@LIEF@@@5@U?$equal_to@PEAVClass@DEX@LIEF@@@5@V?$allocator@U?$pair@QEAVClass@DEX@LIEF@@V?$unordered_map@PEAVMethod@DEX@LIEF@@V?$unordered_map@IIU?$hash@I@std@@U?$equal_to@I@2@V?$allocator@U?$pair@$$CBII@std@@@2@@std@@U?$hash@PEAVMethod@DEX@LIEF@@@5@U?$equal_to@PEAVMethod@DEX@LIEF@@@5@V?$allocator@U?$pair@QEAVMethod@DEX@LIEF@@V?$unordered_map@IIU?$hash@I@std@@U?$equal_to@I@2@V?$allocator@U?$pair@$$CBII@std@@@2@@std@@@std@@@5@@std@@@std@@@5@@std@@@std@@@5@@std@@XZ
?dex2dex_info@Method@DEX@LIEF@@QEBAAEBV?$unordered_map@IIU?$hash@I@std@@U?$equal_to@I@2@V?$allocator@U?$pair@$$CBII@std@@@2@@std@@XZ
?dex2dex_info@Method@OAT@LIEF@@QEBAAEBV?$unordered_map@IIU?$hash@I@std@@U?$equal_to@I@2@V?$allocator@U?$pair@$$CBII@std@@@2@@std@@XZ
?dex2dex_json_info@Binary@OAT@LIEF@@QEAA?AV?$basic_string@DU?$char_traits@D@std@@V?$allocator@D@2@@std@@XZ
?dex2dex_json_info@File@DEX@LIEF@@QEBA?AV?$basic_string@DU?$char_traits@D@std@@V?$allocator@D@2@@std@@XZ
?dex2dex_json_info@File@VDEX@LIEF@@QEAA?AV?$basic_string@DU?$char_traits@D@std@@V?$allocator@D@2@@std@@XZ
?dex_class@Class@OAT@LIEF@@QEAAPEAV1DEX@3@XZ
?dex_class@Class@OAT@LIEF@@QEBAPEBV1DEX@3@XZ
?dex_file@DexFile@OAT@LIEF@@QEAAPEAVFile@DEX@3@XZ
?dex_file@DexFile@OAT@LIEF@@QEBAPEBVFile@DEX@3@XZ
?dex_files@Binary@OAT@LIEF@@QEAA?AV?$ref_iterator@AEAV?$vector@V?$unique_ptr@VFile@DEX@LIEF@@U?$default_delete@VFile@DEX@LIEF@@@std@@@std@@V?$allocator@V?$unique_ptr@VFile@DEX@LIEF@@U?$default_delete@VFile@DEX@LIEF@@@std@@@std@@@2@@std@@PEAVFile@DEX@LIEF@@V?$_Vector_iterator@V?$_Vector_val@U?$_Simple_types@V?$unique_ptr@VFile@DEX@LIEF@@U?$default_delete@VFile@DEX@LIEF@@@std@@@std@@@std@@@std@@@2@@3@XZ
?dex_files@Binary@OAT@LIEF@@QEBA?AV?$ref_iterator@AEBV?$vector@V?$unique_ptr@VFile@DEX@LIEF@@U?$default_delete@VFile@DEX@LIEF@@@std@@@std@@V?$allocator@V?$unique_ptr@VFile@DEX@LIEF@@U?$default_delete@VFile@DEX@LIEF@@@std@@@std@@@2@@std@@PEBVFile@DEX@LIEF@@V?$_Vector_const_iterator@V?$_Vector_val@U?$_Simple_types@V?$unique_ptr@VFile@DEX@LIEF@@U?$default_delete@VFile@DEX@LIEF@@@std@@@std@@@std@@@std@@@2@@3@XZ
?dex_files@File@VDEX@LIEF@@QEAA?AV?$ref_iterator@AEAV?$vector@V?$unique_ptr@VFile@DEX@LIEF@@U?$default_delete@VFile@DEX@LIEF@@@std@@@std@@V?$allocator@V?$unique_ptr@VFile@DEX@LIEF@@U?$default_delete@VFile@DEX@LIEF@@@std@@@std@@@2@@std@@PEAVFile@DEX@LIEF@@V?$_Vector_iterator@V?$_Vector_val@U?$_Simple_types@V?$unique_ptr@VFile@DEX@LIEF@@U?$default_delete@VFile@DEX@LIEF@@@std@@@std@@@std@@@std@@@2@@3@XZ
?dex_files@File@VDEX@LIEF@@QEBA?AV?$ref_iterator@AEBV?$vector@V?$unique_ptr@VFile@DEX@LIEF@@U?$default_delete@VFile@DEX@LIEF@@@std@@@std@@V?$allocator@V?$unique_ptr@VFile@DEX@LIEF@@U?$default_delete@VFile@DEX@LIEF@@@std@@@std@@@2@@std@@PEBVFile@DEX@LIEF@@V?$_Vector_const_iterator@V?$_Vector_val@U?$_Simple_types@V?$unique_ptr@VFile@DEX@LIEF@@U?$default_delete@VFile@DEX@LIEF@@@std@@@std@@@std@@@std@@@2@@3@XZ
?dex_method@Method@OAT@LIEF@@QEAAPEAV1DEX@3@XZ
?dex_method@Method@OAT@LIEF@@QEBAPEBV1DEX@3@XZ
?dex_offset@DexFile@OAT@LIEF@@QEAAXI@Z
?dex_offset@DexFile@OAT@LIEF@@QEBAIXZ
?dex_size@Header@VDEX@LIEF@@QEBAIXZ
?dialogbox_style_list@ResourceDialog@PE@LIEF@@QEBA?AV?$set@W4DIALOG_BOX_STYLES@PE@LIEF@@U?$less@W4DIALOG_BOX_STYLES@PE@LIEF@@@std@@V?$allocator@W4DIALOG_BOX_STYLES@PE@LIEF@@@5@@std@@XZ
?dialogs@ResourcesManager@PE@LIEF@@QEBA?AV?$ref_iterator@$$CBV?$vector@VResourceDialog@PE@LIEF@@V?$allocator@VResourceDialog@PE@LIEF@@@std@@@std@@VResourceDialog@PE@LIEF@@V?$_Vector_const_iterator@V?$_Vector_val@U?$_Simple_types@VResourceDialog@PE@LIEF@@@std@@@std@@@2@@3@XZ
?digest@ContentInfo@PE@LIEF@@QEBAAEBV?$vector@EV?$allocator@E@std@@@std@@XZ
?digest@PKCS9MessageDigest@PE@LIEF@@QEBAAEBV?$vector@EV?$allocator@E@std@@@std@@XZ
?digest_algorithm@ContentInfo@PE@LIEF@@QEBA?AW4ALGORITHMS@23@XZ
?digest_algorithm@Signature@PE@LIEF@@QEBA?AW4ALGORITHMS@23@XZ
?digest_algorithm@SignerInfo@PE@LIEF@@QEBA?AW4ALGORITHMS@23@XZ
?dim@Type@DEX@LIEF@@QEBA_KXZ
?directory@Import@PE@LIEF@@QEAAPEAVDataDirectory@23@XZ
?directory@Import@PE@LIEF@@QEBAPEBVDataDirectory@23@XZ
?directory@TLS@PE@LIEF@@QEAAPEAVDataDirectory@23@XZ
?directory@TLS@PE@LIEF@@QEBAPEBVDataDirectory@23@XZ
?disable@logging@LIEF@@YAXXZ
?disable_pie@Binary@MachO@LIEF@@QEAA_NXZ
?dl_new_hash@ELF@LIEF@@YAIPEBD@Z
?dll_characteristics@OptionalHeader@PE@LIEF@@QEAAXI@Z
?dll_characteristics@OptionalHeader@PE@LIEF@@QEBAIXZ
?dll_characteristics_list@OptionalHeader@PE@LIEF@@QEBA?AV?$set@W4DLL_CHARACTERISTICS@PE@LIEF@@U?$less@W4DLL_CHARACTERISTICS@PE@LIEF@@@std@@V?$allocator@W4DLL_CHARACTERISTICS@PE@LIEF@@@5@@std@@XZ
?dos_header@Binary@PE@LIEF@@QEAAAEAVDosHeader@23@XZ
?dos_header@Binary@PE@LIEF@@QEBAAEBVDosHeader@23@XZ
?dos_stub@Binary@PE@LIEF@@QEAAAEAV?$vector@EV?$allocator@E@std@@@std@@XZ
?dos_stub@Binary@PE@LIEF@@QEAAXAEBV?$vector@EV?$allocator@E@std@@@std@@@Z
?dos_stub@Binary@PE@LIEF@@QEBAAEBV?$vector@EV?$allocator@E@std@@@std@@XZ
?dtor_functions@Binary@ELF@LIEF@@QEBA?AV?$vector@VFunction@LIEF@@V?$allocator@VFunction@LIEF@@@std@@@std@@XZ
?dump@AndroidNote@ELF@LIEF@@UEBAXAEAV?$basic_ostream@DU?$char_traits@D@std@@@std@@@Z
?dump@CoreAuxv@ELF@LIEF@@UEBAXAEAV?$basic_ostream@DU?$char_traits@D@std@@@std@@@Z
?dump@CoreFile@ELF@LIEF@@UEBAXAEAV?$basic_ostream@DU?$char_traits@D@std@@@std@@@Z
?dump@CorePrPsInfo@ELF@LIEF@@UEBAXAEAV?$basic_ostream@DU?$char_traits@D@std@@@std@@@Z
?dump@CorePrStatus@ELF@LIEF@@SAAEAV?$basic_ostream@DU?$char_traits@D@std@@@std@@AEAV45@AEBUsiginfo_t@123@@Z
?dump@CorePrStatus@ELF@LIEF@@SAAEAV?$basic_ostream@DU?$char_traits@D@std@@@std@@AEAV45@AEBUtimeval_t@123@@Z
?dump@CorePrStatus@ELF@LIEF@@SAAEAV?$basic_ostream@DU?$char_traits@D@std@@@std@@AEAV45@AEBV?$map@W4REGISTERS@CorePrStatus@ELF@LIEF@@_KU?$less@W4REGISTERS@CorePrStatus@ELF@LIEF@@@std@@V?$allocator@U?$pair@$$CBW4REGISTERS@CorePrStatus@ELF@LIEF@@_K@std@@@6@@5@@Z
?dump@CorePrStatus@ELF@LIEF@@UEBAXAEAV?$basic_ostream@DU?$char_traits@D@std@@@std@@@Z
?dump@CoreSigInfo@ELF@LIEF@@UEBAXAEAV?$basic_ostream@DU?$char_traits@D@std@@@std@@@Z
?dump@Note@ELF@LIEF@@UEBAXAEAV?$basic_ostream@DU?$char_traits@D@std@@@std@@@Z
?dump@NoteAbi@ELF@LIEF@@UEBAXAEAV?$basic_ostream@DU?$char_traits@D@std@@@std@@@Z
?dump@NoteDetails@ELF@LIEF@@UEBAXAEAV?$basic_ostream@DU?$char_traits@D@std@@@std@@@Z
?dyld_environment@Binary@MachO@LIEF@@QEAAPEAVDyldEnvironment@23@XZ
?dyld_environment@Binary@MachO@LIEF@@QEBAPEBVDyldEnvironment@23@XZ
?dyld_info@Binary@MachO@LIEF@@QEAAPEAVDyldInfo@23@XZ
?dyld_info@Binary@MachO@LIEF@@QEBAPEBVDyldInfo@23@XZ
?dylinker@Binary@MachO@LIEF@@QEAAPEAVDylinkerCommand@23@XZ
?dylinker@Binary@MachO@LIEF@@QEBAPEBVDylinkerCommand@23@XZ
?dynamic_entries@Binary@ELF@LIEF@@QEAA?AV?$ref_iterator@AEAV?$vector@V?$unique_ptr@VDynamicEntry@ELF@LIEF@@U?$default_delete@VDynamicEntry@ELF@LIEF@@@std@@@std@@V?$allocator@V?$unique_ptr@VDynamicEntry@ELF@LIEF@@U?$default_delete@VDynamicEntry@ELF@LIEF@@@std@@@std@@@2@@std@@PEAVDynamicEntry@ELF@LIEF@@V?$_Vector_iterator@V?$_Vector_val@U?$_Simple_types@V?$unique_ptr@VDynamicEntry@ELF@LIEF@@U?$default_delete@VDynamicEntry@ELF@LIEF@@@std@@@std@@@std@@@std@@@2@@3@XZ
?dynamic_entries@Binary@ELF@LIEF@@QEBA?AV?$ref_iterator@AEBV?$vector@V?$unique_ptr@VDynamicEntry@ELF@LIEF@@U?$default_delete@VDynamicEntry@ELF@LIEF@@@std@@@std@@V?$allocator@V?$unique_ptr@VDynamicEntry@ELF@LIEF@@U?$default_delete@VDynamicEntry@ELF@LIEF@@@std@@@std@@@2@@std@@PEBVDynamicEntry@ELF@LIEF@@V?$_Vector_const_iterator@V?$_Vector_val@U?$_Simple_types@V?$unique_ptr@VDynamicEntry@ELF@LIEF@@U?$default_delete@VDynamicEntry@ELF@LIEF@@@std@@@std@@@std@@@std@@@2@@3@XZ
?dynamic_relocations@Binary@ELF@LIEF@@QEAA?AV?$filter_iterator@AEAV?$vector@V?$unique_ptr@VRelocation@ELF@LIEF@@U?$default_delete@VRelocation@ELF@LIEF@@@std@@@std@@V?$allocator@V?$unique_ptr@VRelocation@ELF@LIEF@@U?$default_delete@VRelocation@ELF@LIEF@@@std@@@std@@@2@@std@@PEAVRelocation@ELF@LIEF@@V?$_Vector_iterator@V?$_Vector_val@U?$_Simple_types@V?$unique_ptr@VRelocation@ELF@LIEF@@U?$default_delete@VRelocation@ELF@LIEF@@@std@@@std@@@std@@@std@@@2@@3@XZ
?dynamic_relocations@Binary@ELF@LIEF@@QEBA?AV?$filter_iterator@AEBV?$vector@V?$unique_ptr@VRelocation@ELF@LIEF@@U?$default_delete@VRelocation@ELF@LIEF@@@std@@@std@@V?$allocator@V?$unique_ptr@VRelocation@ELF@LIEF@@U?$default_delete@VRelocation@ELF@LIEF@@@std@@@std@@@2@@std@@PEBVRelocation@ELF@LIEF@@V?$_Vector_const_iterator@V?$_Vector_val@U?$_Simple_types@V?$unique_ptr@VRelocation@ELF@LIEF@@U?$default_delete@VRelocation@ELF@LIEF@@@std@@@std@@@std@@@std@@@2@@3@XZ
?dynamic_section@Binary@ELF@LIEF@@QEAAPEAVSection@23@XZ
?dynamic_symbol_command@Binary@MachO@LIEF@@QEAAPEAVDynamicSymbolCommand@23@XZ
?dynamic_symbol_command@Binary@MachO@LIEF@@QEBAPEBVDynamicSymbolCommand@23@XZ
?dynamic_symbols@Binary@ELF@LIEF@@QEAA?AV?$ref_iterator@AEAV?$vector@V?$unique_ptr@VSymbol@ELF@LIEF@@U?$default_delete@VSymbol@ELF@LIEF@@@std@@@std@@V?$allocator@V?$unique_ptr@VSymbol@ELF@LIEF@@U?$default_delete@VSymbol@ELF@LIEF@@@std@@@std@@@2@@std@@PEAVSymbol@ELF@LIEF@@V?$_Vector_iterator@V?$_Vector_val@U?$_Simple_types@V?$unique_ptr@VSymbol@ELF@LIEF@@U?$default_delete@VSymbol@ELF@LIEF@@@std@@@std@@@std@@@std@@@2@@3@XZ
?dynamic_symbols@Binary@ELF@LIEF@@QEBA?AV?$ref_iterator@AEBV?$vector@V?$unique_ptr@VSymbol@ELF@LIEF@@U?$default_delete@VSymbol@ELF@LIEF@@@std@@@std@@V?$allocator@V?$unique_ptr@VSymbol@ELF@LIEF@@U?$default_delete@VSymbol@ELF@LIEF@@@std@@@std@@@2@@std@@PEBVSymbol@ELF@LIEF@@V?$_Vector_const_iterator@V?$_Vector_val@U?$_Simple_types@V?$unique_ptr@VSymbol@ELF@LIEF@@U?$default_delete@VSymbol@ELF@LIEF@@@std@@@std@@@std@@@std@@@2@@3@XZ
?dynamic_value_reloc_table@LoadConfigurationV4@PE@LIEF@@QEAAX_K@Z
?dynamic_value_reloc_table@LoadConfigurationV4@PE@LIEF@@QEBA_KXZ
?dynamic_value_reloctable_offset@LoadConfigurationV5@PE@LIEF@@QEAAXI@Z
?dynamic_value_reloctable_offset@LoadConfigurationV5@PE@LIEF@@QEBAIXZ
?dynamic_value_reloctable_section@LoadConfigurationV5@PE@LIEF@@QEAAXG@Z
?dynamic_value_reloctable_section@LoadConfigurationV5@PE@LIEF@@QEBAGXZ
?editlist@LoadConfiguration@PE@LIEF@@QEAAXI@Z
?editlist@LoadConfiguration@PE@LIEF@@QEBAIXZ
?eh_frame_functions@Binary@ELF@LIEF@@IEBA?AV?$vector@VFunction@LIEF@@V?$allocator@VFunction@LIEF@@@std@@@std@@XZ
?empty@FatBinary@MachO@LIEF@@QEBA_NXZ
?enable@logging@LIEF@@YAXXZ
?encrypted_digest@SignerInfo@PE@LIEF@@QEBAAEBV?$vector@EV?$allocator@E@std@@@std@@XZ
?encryption_algorithm@SignerInfo@PE@LIEF@@QEBA?AW4ALGORITHMS@23@XZ
?encryption_info@Binary@MachO@LIEF@@QEAAPEAVEncryptionInfo@23@XZ
?encryption_info@Binary@MachO@LIEF@@QEBAPEBVEncryptionInfo@23@XZ
?end@CoreFile@ELF@LIEF@@QEAA?AV?$_Vector_iterator@V?$_Vector_val@U?$_Simple_types@UCoreFileEntry@ELF@LIEF@@@std@@@std@@@std@@XZ
?end@CoreFile@ELF@LIEF@@QEBA?AV?$_Vector_const_iterator@V?$_Vector_val@U?$_Simple_types@UCoreFileEntry@ELF@LIEF@@@std@@@std@@@std@@XZ
?end@FatBinary@MachO@LIEF@@QEAA?AV?$ref_iterator@AEAV?$vector@V?$unique_ptr@VBinary@MachO@LIEF@@U?$default_delete@VBinary@MachO@LIEF@@@std@@@std@@V?$allocator@V?$unique_ptr@VBinary@MachO@LIEF@@U?$default_delete@VBinary@MachO@LIEF@@@std@@@std@@@2@@std@@PEAVBinary@MachO@LIEF@@V?$_Vector_iterator@V?$_Vector_val@U?$_Simple_types@V?$unique_ptr@VBinary@MachO@LIEF@@U?$default_delete@VBinary@MachO@LIEF@@@std@@@std@@@std@@@std@@@2@@3@XZ
?end@FatBinary@MachO@LIEF@@QEBA?AV?$ref_iterator@AEBV?$vector@V?$unique_ptr@VBinary@MachO@LIEF@@U?$default_delete@VBinary@MachO@LIEF@@@std@@@std@@V?$allocator@V?$unique_ptr@VBinary@MachO@LIEF@@U?$default_delete@VBinary@MachO@LIEF@@@std@@@std@@@2@@std@@PEAVBinary@MachO@LIEF@@V?$_Vector_const_iterator@V?$_Vector_val@U?$_Simple_types@V?$unique_ptr@VBinary@MachO@LIEF@@U?$default_delete@VBinary@MachO@LIEF@@@std@@@std@@@std@@@std@@@2@@3@XZ
?endian_tag@Header@DEX@LIEF@@QEBAIXZ
?endianness@Header@LIEF@@QEAAXW4ENDIANNESS@2@@Z
?endianness@Header@LIEF@@QEBA?AW4ENDIANNESS@2@XZ
?entries@DataInCode@MachO@LIEF@@QEAA?AV?$ref_iterator@AEAV?$vector@VDataCodeEntry@MachO@LIEF@@V?$allocator@VDataCodeEntry@MachO@LIEF@@@std@@@std@@VDataCodeEntry@MachO@LIEF@@V?$_Vector_iterator@V?$_Vector_val@U?$_Simple_types@VDataCodeEntry@MachO@LIEF@@@std@@@std@@@2@@3@XZ
?entries@DataInCode@MachO@LIEF@@QEBA?AV?$ref_iterator@AEBV?$vector@VDataCodeEntry@MachO@LIEF@@V?$allocator@VDataCodeEntry@MachO@LIEF@@@std@@@std@@VDataCodeEntry@MachO@LIEF@@V?$_Vector_const_iterator@V?$_Vector_val@U?$_Simple_types@VDataCodeEntry@MachO@LIEF@@@std@@@std@@@2@@3@XZ
?entries@DelayImport@PE@LIEF@@QEAA?AV?$ref_iterator@AEAV?$vector@VDelayImportEntry@PE@LIEF@@V?$allocator@VDelayImportEntry@PE@LIEF@@@std@@@std@@VDelayImportEntry@PE@LIEF@@V?$_Vector_iterator@V?$_Vector_val@U?$_Simple_types@VDelayImportEntry@PE@LIEF@@@std@@@std@@@2@@3@XZ
?entries@DelayImport@PE@LIEF@@QEBA?AV?$ref_iterator@AEBV?$vector@VDelayImportEntry@PE@LIEF@@V?$allocator@VDelayImportEntry@PE@LIEF@@@std@@@std@@VDelayImportEntry@PE@LIEF@@V?$_Vector_const_iterator@V?$_Vector_val@U?$_Simple_types@VDelayImportEntry@PE@LIEF@@@std@@@std@@@2@@3@XZ
?entries@Export@PE@LIEF@@QEAA?AV?$ref_iterator@AEAV?$vector@VExportEntry@PE@LIEF@@V?$allocator@VExportEntry@PE@LIEF@@@std@@@std@@VExportEntry@PE@LIEF@@V?$_Vector_iterator@V?$_Vector_val@U?$_Simple_types@VExportEntry@PE@LIEF@@@std@@@std@@@2@@3@XZ
?entries@Export@PE@LIEF@@QEBA?AV?$ref_iterator@AEBV?$vector@VExportEntry@PE@LIEF@@V?$allocator@VExportEntry@PE@LIEF@@@std@@@std@@VExportEntry@PE@LIEF@@V?$_Vector_const_iterator@V?$_Vector_val@U?$_Simple_types@VExportEntry@PE@LIEF@@@std@@@std@@@2@@3@XZ
?entries@Import@PE@LIEF@@QEAA?AV?$ref_iterator@AEAV?$vector@VImportEntry@PE@LIEF@@V?$allocator@VImportEntry@PE@LIEF@@@std@@@std@@VImportEntry@PE@LIEF@@V?$_Vector_iterator@V?$_Vector_val@U?$_Simple_types@VImportEntry@PE@LIEF@@@std@@@std@@@2@@3@XZ
?entries@Import@PE@LIEF@@QEBA?AV?$ref_iterator@AEBV?$vector@VImportEntry@PE@LIEF@@V?$allocator@VImportEntry@PE@LIEF@@@std@@@std@@VImportEntry@PE@LIEF@@V?$_Vector_const_iterator@V?$_Vector_val@U?$_Simple_types@VImportEntry@PE@LIEF@@@std@@@std@@@2@@3@XZ
?entries@Pogo@PE@LIEF@@QEAA?AV?$ref_iterator@AEAV?$vector@VPogoEntry@PE@LIEF@@V?$allocator@VPogoEntry@PE@LIEF@@@std@@@std@@VPogoEntry@PE@LIEF@@V?$_Vector_iterator@V?$_Vector_val@U?$_Simple_types@VPogoEntry@PE@LIEF@@@std@@@std@@@2@@3@XZ
?entries@Pogo@PE@LIEF@@QEBA?AV?$ref_iterator@AEBV?$vector@VPogoEntry@PE@LIEF@@V?$allocator@VPogoEntry@PE@LIEF@@@std@@@std@@VPogoEntry@PE@LIEF@@V?$_Vector_const_iterator@V?$_Vector_val@U?$_Simple_types@VPogoEntry@PE@LIEF@@@std@@@std@@@2@@3@XZ
?entries@Relocation@PE@LIEF@@QEAA?AV?$ref_iterator@AEAV?$vector@V?$unique_ptr@VRelocationEntry@PE@LIEF@@U?$default_delete@VRelocationEntry@PE@LIEF@@@std@@@std@@V?$allocator@V?$unique_ptr@VRelocationEntry@PE@LIEF@@U?$default_delete@VRelocationEntry@PE@LIEF@@@std@@@std@@@2@@std@@PEAVRelocationEntry@PE@LIEF@@V?$_Vector_iterator@V?$_Vector_val@U?$_Simple_types@V?$unique_ptr@VRelocationEntry@PE@LIEF@@U?$default_delete@VRelocationEntry@PE@LIEF@@@std@@@std@@@std@@@std@@@2@@3@XZ
?entries@Relocation@PE@LIEF@@QEBA?AV?$ref_iterator@AEBV?$vector@V?$unique_ptr@VRelocationEntry@PE@LIEF@@U?$default_delete@VRelocationEntry@PE@LIEF@@@std@@@std@@V?$allocator@V?$unique_ptr@VRelocationEntry@PE@LIEF@@U?$default_delete@VRelocationEntry@PE@LIEF@@@std@@@std@@@2@@std@@PEAVRelocationEntry@PE@LIEF@@V?$_Vector_const_iterator@V?$_Vector_val@U?$_Simple_types@V?$unique_ptr@VRelocationEntry@PE@LIEF@@U?$default_delete@VRelocationEntry@PE@LIEF@@@std@@@std@@@std@@@std@@@2@@3@XZ
?entries@RichHeader@PE@LIEF@@QEAA?AV?$ref_iterator@AEAV?$vector@VRichEntry@PE@LIEF@@V?$allocator@VRichEntry@PE@LIEF@@@std@@@std@@VRichEntry@PE@LIEF@@V?$_Vector_iterator@V?$_Vector_val@U?$_Simple_types@VRichEntry@PE@LIEF@@@std@@@std@@@2@@3@XZ
?entries@RichHeader@PE@LIEF@@QEBA?AV?$ref_iterator@AEBV?$vector@VRichEntry@PE@LIEF@@V?$allocator@VRichEntry@PE@LIEF@@@std@@@std@@VRichEntry@PE@LIEF@@V?$_Vector_const_iterator@V?$_Vector_val@U?$_Simple_types@VRichEntry@PE@LIEF@@@std@@@std@@@2@@3@XZ
?entropy@Section@LIEF@@QEBANXZ
?entry_size@Section@ELF@LIEF@@QEAAX_K@Z
?entry_size@Section@ELF@LIEF@@QEBA_KXZ
?entrypoint@Binary@ELF@LIEF@@UEBA_KXZ
?entrypoint@Binary@MachO@LIEF@@UEBA_KXZ
?entrypoint@Binary@PE@LIEF@@UEBA_KXZ
?entrypoint@Header@ELF@LIEF@@QEAAX_K@Z
?entrypoint@Header@ELF@LIEF@@QEBA_KXZ
?entrypoint@Header@LIEF@@QEAAX_K@Z
?entrypoint@Header@LIEF@@QEBA_KXZ
?entrypoint@MainCommand@MachO@LIEF@@QEAAX_K@Z
?entrypoint@MainCommand@MachO@LIEF@@QEBA_KXZ
?eof_offset@Binary@ELF@LIEF@@QEBA_KXZ
?exception_functions@Binary@PE@LIEF@@QEBA?AV?$vector@VFunction@LIEF@@V?$allocator@VFunction@LIEF@@@std@@@std@@XZ
?executable_offset@Header@OAT@LIEF@@QEBAIXZ
?export_flags@Export@PE@LIEF@@QEAAXI@Z
?export_flags@Export@PE@LIEF@@QEBAIXZ
?export_info@DyldInfo@MachO@LIEF@@QEAAXAEBU?$pair@II@std@@@Z
?export_info@DyldInfo@MachO@LIEF@@QEBAAEBU?$pair@II@std@@XZ
?export_info@Symbol@MachO@LIEF@@QEAAPEAVExportInfo@23@XZ
?export_info@Symbol@MachO@LIEF@@QEBAPEBVExportInfo@23@XZ
?export_symbol@Binary@ELF@LIEF@@QEAAAEAVSymbol@23@AEBV423@@Z
?export_symbol@Binary@ELF@LIEF@@QEAAAEAVSymbol@23@AEBV?$basic_string@DU?$char_traits@D@std@@V?$allocator@D@2@@std@@_K@Z
?export_trie@DyldInfo@MachO@LIEF@@QEAA?AV?$span@E$0?0@tcb@@XZ
?export_trie@DyldInfo@MachO@LIEF@@QEAAXV?$vector@EV?$allocator@E@std@@@std@@@Z
?export_trie@DyldInfo@MachO@LIEF@@QEBA?AV?$span@$$CBE$0?0@tcb@@XZ
?exported_functions@Binary@LIEF@@QEBA?AV?$vector@VFunction@LIEF@@V?$allocator@VFunction@LIEF@@@std@@@std@@XZ
?exported_symbols@Binary@ELF@LIEF@@QEAA?AV?$filter_iterator@V?$vector@PEAVSymbol@ELF@LIEF@@V?$allocator@PEAVSymbol@ELF@LIEF@@@std@@@std@@PEAVSymbol@ELF@LIEF@@V?$_Vector_iterator@V?$_Vector_val@U?$_Simple_types@PEAVSymbol@ELF@LIEF@@@std@@@std@@@2@@3@XZ
?exported_symbols@Binary@ELF@LIEF@@QEBA?AV?$filter_iterator@$$CBV?$vector@PEAVSymbol@ELF@LIEF@@V?$allocator@PEAVSymbol@ELF@LIEF@@@std@@@std@@PEAVSymbol@ELF@LIEF@@V?$_Vector_const_iterator@V?$_Vector_val@U?$_Simple_types@PEAVSymbol@ELF@LIEF@@@std@@@std@@@2@@3@XZ
?exported_symbols@Binary@MachO@LIEF@@QEAA?AV?$filter_iterator@AEAV?$vector@V?$unique_ptr@VSymbol@MachO@LIEF@@U?$default_delete@VSymbol@MachO@LIEF@@@std@@@std@@V?$allocator@V?$unique_ptr@VSymbol@MachO@LIEF@@U?$default_delete@VSymbol@MachO@LIEF@@@std@@@std@@@2@@std@@PEAVSymbol@MachO@LIEF@@V?$_Vector_iterator@V?$_Vector_val@U?$_Simple_types@V?$unique_ptr@VSymbol@MachO@LIEF@@U?$default_delete@VSymbol@MachO@LIEF@@@std@@@std@@@std@@@std@@@2@@3@XZ
?exported_symbols@Binary@MachO@LIEF@@QEBA?AV?$filter_iterator@AEBV?$vector@V?$unique_ptr@VSymbol@MachO@LIEF@@U?$default_delete@VSymbol@MachO@LIEF@@@std@@@std@@V?$allocator@V?$unique_ptr@VSymbol@MachO@LIEF@@U?$default_delete@VSymbol@MachO@LIEF@@@std@@@std@@@2@@std@@PEBVSymbol@MachO@LIEF@@V?$_Vector_const_iterator@V?$_Vector_val@U?$_Simple_types@V?$unique_ptr@VSymbol@MachO@LIEF@@U?$default_delete@VSymbol@MachO@LIEF@@@std@@@std@@@std@@@std@@@2@@3@XZ
?exports@DyldInfo@MachO@LIEF@@QEAA?AV?$ref_iterator@AEAV?$vector@V?$unique_ptr@VExportInfo@MachO@LIEF@@U?$default_delete@VExportInfo@MachO@LIEF@@@std@@@std@@V?$allocator@V?$unique_ptr@VExportInfo@MachO@LIEF@@U?$default_delete@VExportInfo@MachO@LIEF@@@std@@@std@@@2@@std@@PEAVExportInfo@MachO@LIEF@@V?$_Vector_iterator@V?$_Vector_val@U?$_Simple_types@V?$unique_ptr@VExportInfo@MachO@LIEF@@U?$default_delete@VExportInfo@MachO@LIEF@@@std@@@std@@@std@@@std@@@2@@3@XZ
?exports@DyldInfo@MachO@LIEF@@QEBA?AV?$ref_iterator@AEBV?$vector@V?$unique_ptr@VExportInfo@MachO@LIEF@@U?$default_delete@VExportInfo@MachO@LIEF@@@std@@@std@@V?$allocator@V?$unique_ptr@VExportInfo@MachO@LIEF@@U?$default_delete@VExportInfo@MachO@LIEF@@@std@@@std@@@2@@std@@PEAVExportInfo@MachO@LIEF@@V?$_Vector_const_iterator@V?$_Vector_val@U?$_Simple_types@V?$unique_ptr@VExportInfo@MachO@LIEF@@U?$default_delete@VExportInfo@MachO@LIEF@@@std@@@std@@@std@@@std@@@2@@3@XZ
?ext_key_usage@x509@PE@LIEF@@QEBA?AV?$vector@V?$basic_string@DU?$char_traits@D@std@@V?$allocator@D@2@@std@@V?$allocator@V?$basic_string@DU?$char_traits@D@std@@V?$allocator@D@2@@std@@@2@@std@@XZ
?extend@Binary@ELF@LIEF@@QEAAAEAVSection@23@AEBV423@_K@Z
?extend@Binary@ELF@LIEF@@QEAAAEAVSegment@23@AEBV423@_K@Z
?extend@Binary@MachO@LIEF@@QEAA_NAEBVLoadCommand@23@_K@Z
?extend_segment@Binary@MachO@LIEF@@QEAA_NAEBVSegmentCommand@23@_K@Z
?extended_style@ResourceDialog@PE@LIEF@@QEBAIXZ
?extended_style@ResourceDialogItem@PE@LIEF@@QEBAIXZ
?extended_style_list@ResourceDialog@PE@LIEF@@QEBA?AV?$set@W4EXTENDED_WINDOW_STYLES@PE@LIEF@@U?$less@W4EXTENDED_WINDOW_STYLES@PE@LIEF@@@std@@V?$allocator@W4EXTENDED_WINDOW_STYLES@PE@LIEF@@@5@@std@@XZ
?extended_style_list@ResourceDialogItem@PE@LIEF@@QEBA?AV?$set@W4EXTENDED_WINDOW_STYLES@PE@LIEF@@U?$less@W4EXTENDED_WINDOW_STYLES@PE@LIEF@@@std@@V?$allocator@W4EXTENDED_WINDOW_STYLES@PE@LIEF@@@5@@std@@XZ
?external_reference_symbol_offset@DynamicSymbolCommand@MachO@LIEF@@QEAAXI@Z
?external_reference_symbol_offset@DynamicSymbolCommand@MachO@LIEF@@QEBAIXZ
?external_relocation_offset@DynamicSymbolCommand@MachO@LIEF@@QEAAXI@Z
?external_relocation_offset@DynamicSymbolCommand@MachO@LIEF@@QEBAIXZ
?fat_offset@Binary@MachO@LIEF@@QEBA_KXZ
?fields@Class@DEX@LIEF@@QEAA?AV?$filter_iterator@AEAV?$vector@PEAVField@DEX@LIEF@@V?$allocator@PEAVField@DEX@LIEF@@@std@@@std@@PEAVField@DEX@LIEF@@V?$_Vector_iterator@V?$_Vector_val@U?$_Simple_types@PEAVField@DEX@LIEF@@@std@@@std@@@2@@3@AEBV?$basic_string@DU?$char_traits@D@std@@V?$allocator@D@2@@std@@@Z
?fields@Class@DEX@LIEF@@QEAA?AV?$ref_iterator@AEAV?$vector@PEAVField@DEX@LIEF@@V?$allocator@PEAVField@DEX@LIEF@@@std@@@std@@PEAVField@DEX@LIEF@@V?$_Vector_iterator@V?$_Vector_val@U?$_Simple_types@PEAVField@DEX@LIEF@@@std@@@std@@@2@@3@XZ
?fields@Class@DEX@LIEF@@QEBA?AV?$filter_iterator@AEBV?$vector@PEAVField@DEX@LIEF@@V?$allocator@PEAVField@DEX@LIEF@@@std@@@std@@PEAVField@DEX@LIEF@@V?$_Vector_const_iterator@V?$_Vector_val@U?$_Simple_types@PEAVField@DEX@LIEF@@@std@@@std@@@2@@3@AEBV?$basic_string@DU?$char_traits@D@std@@V?$allocator@D@2@@std@@@Z
?fields@Class@DEX@LIEF@@QEBA?AV?$ref_iterator@AEBV?$vector@PEAVField@DEX@LIEF@@V?$allocator@PEAVField@DEX@LIEF@@@std@@@std@@PEAVField@DEX@LIEF@@V?$_Vector_const_iterator@V?$_Vector_val@U?$_Simple_types@PEAVField@DEX@LIEF@@@std@@@std@@@2@@3@XZ
?fields@File@DEX@LIEF@@QEAA?AV?$ref_iterator@AEAV?$vector@V?$unique_ptr@VField@DEX@LIEF@@U?$default_delete@VField@DEX@LIEF@@@std@@@std@@V?$allocator@V?$unique_ptr@VField@DEX@LIEF@@U?$default_delete@VField@DEX@LIEF@@@std@@@std@@@2@@std@@PEAVField@DEX@LIEF@@V?$_Vector_iterator@V?$_Vector_val@U?$_Simple_types@V?$unique_ptr@VField@DEX@LIEF@@U?$default_delete@VField@DEX@LIEF@@@std@@@std@@@std@@@std@@@2@@3@XZ
?fields@File@DEX@LIEF@@QEBA?AV?$ref_iterator@AEBV?$vector@V?$unique_ptr@VField@DEX@LIEF@@U?$default_delete@VField@DEX@LIEF@@@std@@@std@@V?$allocator@V?$unique_ptr@VField@DEX@LIEF@@U?$default_delete@VField@DEX@LIEF@@@std@@@std@@@2@@std@@PEBVField@DEX@LIEF@@V?$_Vector_const_iterator@V?$_Vector_val@U?$_Simple_types@V?$unique_ptr@VField@DEX@LIEF@@U?$default_delete@VField@DEX@LIEF@@@std@@@std@@@std@@@std@@@2@@3@XZ
?fields@Header@DEX@LIEF@@QEBA?AU?$pair@II@std@@XZ
?file@ContentInfo@PE@LIEF@@QEBAAEBV?$basic_string@DU?$char_traits@D@std@@V?$allocator@D@2@@std@@XZ
?file_alignment@OptionalHeader@PE@LIEF@@QEAAXI@Z
?file_alignment@OptionalHeader@PE@LIEF@@QEBAIXZ
?file_date_LS@ResourceFixedFileInfo@PE@LIEF@@QEAAXI@Z
?file_date_LS@ResourceFixedFileInfo@PE@LIEF@@QEBAIXZ
?file_date_MS@ResourceFixedFileInfo@PE@LIEF@@QEAAXI@Z
?file_date_MS@ResourceFixedFileInfo@PE@LIEF@@QEBAIXZ
?file_flags@ResourceFixedFileInfo@PE@LIEF@@QEAAXI@Z
?file_flags@ResourceFixedFileInfo@PE@LIEF@@QEBAIXZ
?file_flags_mask@ResourceFixedFileInfo@PE@LIEF@@QEAAXI@Z
?file_flags_mask@ResourceFixedFileInfo@PE@LIEF@@QEBAIXZ
?file_name@CorePrPsInfo@ELF@LIEF@@QEAAXAEBV?$basic_string@DU?$char_traits@D@std@@V?$allocator@D@2@@std@@@Z
?file_name@CorePrPsInfo@ELF@LIEF@@QEBA?AV?$basic_string@DU?$char_traits@D@std@@V?$allocator@D@2@@std@@XZ
?file_offset@FilesetCommand@MachO@LIEF@@QEAAX_K@Z
?file_offset@FilesetCommand@MachO@LIEF@@QEBA_KXZ
?file_offset@Section@ELF@LIEF@@QEAAX_K@Z
?file_offset@Section@ELF@LIEF@@QEBA_KXZ
?file_offset@Segment@ELF@LIEF@@QEAAX_K@Z
?file_offset@Segment@ELF@LIEF@@QEBA_KXZ
?file_offset@SegmentCommand@MachO@LIEF@@QEAAX_K@Z
?file_offset@SegmentCommand@MachO@LIEF@@QEBA_KXZ
?file_os@ResourceFixedFileInfo@PE@LIEF@@QEAAXW4FIXED_VERSION_OS@23@@Z
?file_os@ResourceFixedFileInfo@PE@LIEF@@QEBA?AW4FIXED_VERSION_OS@23@XZ
?file_size@Header@DEX@LIEF@@QEBAIXZ
?file_size@SegmentCommand@MachO@LIEF@@QEAAX_K@Z
?file_size@SegmentCommand@MachO@LIEF@@QEBA_KXZ
?file_size_in_pages@DosHeader@PE@LIEF@@QEAAXG@Z
?file_size_in_pages@DosHeader@PE@LIEF@@QEBAGXZ
?file_subtype@ResourceFixedFileInfo@PE@LIEF@@QEAAXW4FIXED_VERSION_FILE_SUB_TYPES@23@@Z
?file_subtype@ResourceFixedFileInfo@PE@LIEF@@QEBA?AW4FIXED_VERSION_FILE_SUB_TYPES@23@XZ
?file_type@Header@ELF@LIEF@@QEAAXW4E_TYPE@23@@Z
?file_type@Header@ELF@LIEF@@QEBA?AW4E_TYPE@23@XZ
?file_type@Header@MachO@LIEF@@QEAAXW4FILE_TYPES@23@@Z
?file_type@Header@MachO@LIEF@@QEBA?AW4FILE_TYPES@23@XZ
?file_type@ResourceFixedFileInfo@PE@LIEF@@QEAAXW4FIXED_VERSION_FILE_TYPES@23@@Z
?file_type@ResourceFixedFileInfo@PE@LIEF@@QEBA?AW4FIXED_VERSION_FILE_TYPES@23@XZ
?file_version_LS@ResourceFixedFileInfo@PE@LIEF@@QEAAXI@Z
?file_version_LS@ResourceFixedFileInfo@PE@LIEF@@QEBAIXZ
?file_version_MS@ResourceFixedFileInfo@PE@LIEF@@QEAAXI@Z
?file_version_MS@ResourceFixedFileInfo@PE@LIEF@@QEBAIXZ
?filename@CodeViewPDB@PE@LIEF@@QEAAXAEBV?$basic_string@DU?$char_traits@D@std@@V?$allocator@D@2@@std@@@Z
?filename@CodeViewPDB@PE@LIEF@@QEBAAEBV?$basic_string@DU?$char_traits@D@std@@V?$allocator@D@2@@std@@XZ
?files@CoreFile@ELF@LIEF@@QEAAXAEBV?$vector@UCoreFileEntry@ELF@LIEF@@V?$allocator@UCoreFileEntry@ELF@LIEF@@@std@@@std@@@Z
?files@CoreFile@ELF@LIEF@@QEBAAEBV?$vector@UCoreFileEntry@ELF@LIEF@@V?$allocator@UCoreFileEntry@ELF@LIEF@@@std@@@std@@XZ
?filesets@Binary@MachO@LIEF@@QEAA?AV?$ref_iterator@AEAV?$vector@V?$unique_ptr@VBinary@MachO@LIEF@@U?$default_delete@VBinary@MachO@LIEF@@@std@@@std@@V?$allocator@V?$unique_ptr@VBinary@MachO@LIEF@@U?$default_delete@VBinary@MachO@LIEF@@@std@@@std@@@2@@std@@PEAVBinary@MachO@LIEF@@V?$_Vector_iterator@V?$_Vector_val@U?$_Simple_types@V?$unique_ptr@VBinary@MachO@LIEF@@U?$default_delete@VBinary@MachO@LIEF@@@std@@@std@@@std@@@std@@@2@@3@XZ
?filesets@Binary@MachO@LIEF@@QEBA?AV?$ref_iterator@AEBV?$vector@V?$unique_ptr@VBinary@MachO@LIEF@@U?$default_delete@VBinary@MachO@LIEF@@@std@@@std@@V?$allocator@V?$unique_ptr@VBinary@MachO@LIEF@@U?$default_delete@VBinary@MachO@LIEF@@@std@@@std@@@2@@std@@PEAVBinary@MachO@LIEF@@V?$_Vector_const_iterator@V?$_Vector_val@U?$_Simple_types@V?$unique_ptr@VBinary@MachO@LIEF@@U?$default_delete@VBinary@MachO@LIEF@@@std@@@std@@@std@@@std@@@2@@3@XZ
?find_crt@Signature@PE@LIEF@@QEBAPEBVx509@23@AEBV?$vector@EV?$allocator@E@std@@@std@@@Z
?find_crt_issuer@Signature@PE@LIEF@@QEBAPEBVx509@23@AEBV?$basic_string@DU?$char_traits@D@std@@V?$allocator@D@2@@std@@@Z
?find_crt_issuer@Signature@PE@LIEF@@QEBAPEBVx509@23@AEBV?$basic_string@DU?$char_traits@D@std@@V?$allocator@D@2@@std@@AEBV?$vector@EV?$allocator@E@std@@@6@@Z
?find_crt_subject@Signature@PE@LIEF@@QEBAPEBVx509@23@AEBV?$basic_string@DU?$char_traits@D@std@@V?$allocator@D@2@@std@@@Z
?find_crt_subject@Signature@PE@LIEF@@QEBAPEBVx509@23@AEBV?$basic_string@DU?$char_traits@D@std@@V?$allocator@D@2@@std@@AEBV?$vector@EV?$allocator@E@std@@@6@@Z
?fixed_file_info@ResourceVersion@PE@LIEF@@QEAAPEAVResourceFixedFileInfo@23@XZ
?fixed_file_info@ResourceVersion@PE@LIEF@@QEAAXAEBVResourceFixedFileInfo@23@@Z
?fixed_file_info@ResourceVersion@PE@LIEF@@QEBAPEBVResourceFixedFileInfo@23@XZ
?flag_to_string@Signature@PE@LIEF@@SA?AV?$basic_string@DU?$char_traits@D@std@@V?$allocator@D@2@@std@@W4VERIFICATION_FLAGS@123@@Z
?flags@CodeIntegrity@PE@LIEF@@QEAAXG@Z
?flags@CodeIntegrity@PE@LIEF@@QEBAGXZ
?flags@CorePrPsInfo@ELF@LIEF@@QEAAX_K@Z
?flags@CorePrPsInfo@ELF@LIEF@@QEBA_KXZ
?flags@DynamicEntryFlags@ELF@LIEF@@QEBA?AV?$set@IU?$less@I@std@@V?$allocator@I@2@@std@@XZ
?flags@ExportInfo@MachO@LIEF@@QEAAX_K@Z
?flags@ExportInfo@MachO@LIEF@@QEBA_KXZ
?flags@Function@LIEF@@QEBA?AV?$vector@W4FLAGS@Function@LIEF@@V?$allocator@W4FLAGS@Function@LIEF@@@std@@@std@@XZ
?flags@Header@MachO@LIEF@@QEAAXI@Z
?flags@Header@MachO@LIEF@@QEBAIXZ
?flags@ResourceAccelerator@PE@LIEF@@QEBAFXZ
?flags@Section@ELF@LIEF@@QEAAX_K@Z
?flags@Section@ELF@LIEF@@QEBA_KXZ
?flags@Section@MachO@LIEF@@QEAAXI@Z
?flags@Section@MachO@LIEF@@QEBAIXZ
?flags@Segment@ELF@LIEF@@QEAAXW4ELF_SEGMENT_FLAGS@23@@Z
?flags@Segment@ELF@LIEF@@QEBA?AW4ELF_SEGMENT_FLAGS@23@XZ
?flags@SegmentCommand@MachO@LIEF@@QEAAXI@Z
?flags@SegmentCommand@MachO@LIEF@@QEBAIXZ
?flags@SymbolVersionAuxRequirement@ELF@LIEF@@QEAAXG@Z
?flags@SymbolVersionAuxRequirement@ELF@LIEF@@QEBAGXZ
?flags@SymbolVersionDefinition@ELF@LIEF@@QEAAXG@Z
?flags@SymbolVersionDefinition@ELF@LIEF@@QEBAGXZ
?flags_list@ExportInfo@MachO@LIEF@@QEBA?AV?$vector@W4EXPORT_SYMBOL_FLAGS@MachO@LIEF@@V?$allocator@W4EXPORT_SYMBOL_FLAGS@MachO@LIEF@@@std@@@std@@XZ
?flags_list@Header@MachO@LIEF@@QEBA?AV?$set@W4HEADER_FLAGS@MachO@LIEF@@U?$less@W4HEADER_FLAGS@MachO@LIEF@@@std@@V?$allocator@W4HEADER_FLAGS@MachO@LIEF@@@5@@std@@XZ
?flags_list@ResourceAccelerator@PE@LIEF@@QEBA?AV?$set@W4ACCELERATOR_FLAGS@PE@LIEF@@U?$less@W4ACCELERATOR_FLAGS@PE@LIEF@@@std@@V?$allocator@W4ACCELERATOR_FLAGS@PE@LIEF@@@5@@std@@XZ
?flags_list@Section@ELF@LIEF@@QEBA?AV?$set@W4ELF_SECTION_FLAGS@ELF@LIEF@@U?$less@W4ELF_SECTION_FLAGS@ELF@LIEF@@@std@@V?$allocator@W4ELF_SECTION_FLAGS@ELF@LIEF@@@5@@std@@XZ
?flags_list@Section@MachO@LIEF@@QEBA?AV?$set@W4MACHO_SECTION_FLAGS@MachO@LIEF@@U?$less@W4MACHO_SECTION_FLAGS@MachO@LIEF@@@std@@V?$allocator@W4MACHO_SECTION_FLAGS@MachO@LIEF@@@5@@std@@XZ
?flavor@ThreadCommand@MachO@LIEF@@QEAAXI@Z
?flavor@ThreadCommand@MachO@LIEF@@QEBAIXZ
?force_relocations@Builder@ELF@LIEF@@QEAAAEAV123@_N@Z
?format@Binary@LIEF@@QEBA?AW4EXE_FORMATS@2@XZ
?forward_information@ExportEntry@PE@LIEF@@QEBA?AUforward_information_t@123@XZ
?forwarder_chain@Import@PE@LIEF@@QEBAIXZ
?from_pdb20@CodeViewPDB@PE@LIEF@@SA?AV123@IIAEBV?$basic_string@DU?$char_traits@D@std@@V?$allocator@D@2@@std@@@Z
?from_pdb70@CodeViewPDB@PE@LIEF@@SA?AV123@V?$array@E$0BA@@std@@IAEBV?$basic_string@DU?$char_traits@D@std@@V?$allocator@D@2@@5@@Z
?from_raw@Segment@ELF@LIEF@@SA?AV?$result@VSegment@ELF@LIEF@@@leaf@boost@@AEBV?$vector@EV?$allocator@E@std@@@std@@@Z
?from_raw@Segment@ELF@LIEF@@SA?AV?$result@VSegment@ELF@LIEF@@@leaf@boost@@PEBE_K@Z
?from_stream@Handler@DataHandler@ELF@LIEF@@SA?AV?$result@V?$unique_ptr@VHandler@DataHandler@ELF@LIEF@@U?$default_delete@VHandler@DataHandler@ELF@LIEF@@@std@@@std@@@leaf@boost@@AEAV?$unique_ptr@VBinaryStream@LIEF@@U?$default_delete@VBinaryStream@LIEF@@@std@@@std@@@Z
?front@FatBinary@MachO@LIEF@@QEAAPEAVBinary@23@XZ
?front@FatBinary@MachO@LIEF@@QEBAPEBVBinary@23@XZ
?full_dyldinfo@ParserConfig@MachO@LIEF@@QEAAAEAU123@_N@Z
?fullname@Class@DEX@LIEF@@QEBAAEBV?$basic_string@DU?$char_traits@D@std@@V?$allocator@D@2@@std@@XZ
?fullname@Class@OAT@LIEF@@QEBAAEBV?$basic_string@DU?$char_traits@D@std@@V?$allocator@D@2@@std@@XZ
?fullname@Section@LIEF@@UEBAAEBV?$basic_string@DU?$char_traits@D@std@@V?$allocator@D@2@@std@@XZ
?fullname_normalized@Class@DEX@LIEF@@SA?AV?$basic_string@DU?$char_traits@D@std@@V?$allocator@D@2@@std@@AEBV45@0@Z
?fullname_normalized@Class@DEX@LIEF@@SA?AV?$basic_string@DU?$char_traits@D@std@@V?$allocator@D@2@@std@@AEBV45@@Z
?function_rva@ExportEntry@PE@LIEF@@QEBAIXZ
?function_starts@Binary@MachO@LIEF@@QEAAPEAVFunctionStarts@23@XZ
?function_starts@Binary@MachO@LIEF@@QEBAPEBVFunctionStarts@23@XZ
?functions@Binary@ELF@LIEF@@QEBA?AV?$vector@VFunction@LIEF@@V?$allocator@VFunction@LIEF@@@std@@@std@@XZ
?functions@Binary@MachO@LIEF@@QEBA?AV?$vector@VFunction@LIEF@@V?$allocator@VFunction@LIEF@@@std@@@std@@XZ
?functions@Binary@PE@LIEF@@QEBA?AV?$vector@VFunction@LIEF@@V?$allocator@VFunction@LIEF@@@std@@@std@@XZ
?functions@FunctionStarts@MachO@LIEF@@QEAAAEAV?$vector@_KV?$allocator@_K@std@@@std@@XZ
?functions@FunctionStarts@MachO@LIEF@@QEAAXAEBV?$vector@_KV?$allocator@_K@std@@@std@@@Z
?functions@FunctionStarts@MachO@LIEF@@QEBAAEBV?$vector@_KV?$allocator@_K@std@@@std@@XZ
?get@Binary@ELF@LIEF@@QEAAPEAVDynamicEntry@23@W4DYNAMIC_TAGS@23@@Z
?get@Binary@ELF@LIEF@@QEAAPEAVNote@23@W4NOTE_TYPES@23@@Z
?get@Binary@ELF@LIEF@@QEAAPEAVSection@23@W4ELF_SECTION_TYPES@23@@Z
?get@Binary@ELF@LIEF@@QEAAPEAVSegment@23@W4SEGMENT_TYPES@23@@Z
?get@Binary@ELF@LIEF@@QEBAPEBVDynamicEntry@23@W4DYNAMIC_TAGS@23@@Z
?get@Binary@ELF@LIEF@@QEBAPEBVNote@23@W4NOTE_TYPES@23@@Z
?get@Binary@ELF@LIEF@@QEBAPEBVSection@23@W4ELF_SECTION_TYPES@23@@Z
?get@Binary@ELF@LIEF@@QEBAPEBVSegment@23@W4SEGMENT_TYPES@23@@Z
?get@Binary@MachO@LIEF@@QEAAPEAVLoadCommand@23@W4LOAD_COMMAND_TYPES@23@@Z
?get@Binary@MachO@LIEF@@QEBAPEBVLoadCommand@23@W4LOAD_COMMAND_TYPES@23@@Z
?get@CoreAuxv@ELF@LIEF@@QEBA_KW4AUX_TYPE@23@PEA_N@Z
?get@CorePrStatus@ELF@LIEF@@QEBA_KW4REGISTERS@123@PEA_N@Z
?get@Handler@DataHandler@ELF@LIEF@@QEAA?AV?$result@AEAVNode@DataHandler@ELF@LIEF@@@leaf@boost@@_K0W4Type@Node@234@@Z
?get@Header@OAT@LIEF@@QEAAPEAV?$basic_string@DU?$char_traits@D@std@@V?$allocator@D@2@@std@@W4HEADER_KEYS@23@@Z
?get@Header@OAT@LIEF@@QEBAPEBV?$basic_string@DU?$char_traits@D@std@@V?$allocator@D@2@@std@@W4HEADER_KEYS@23@@Z
?get@MapList@DEX@LIEF@@QEAAAEAVMapItem@23@W4TYPES@423@@Z
?get@MapList@DEX@LIEF@@QEBAAEBVMapItem@23@W4TYPES@423@@Z
?get_abstract_exported_functions@Binary@ELF@LIEF@@MEBA?AV?$vector@VFunction@LIEF@@V?$allocator@VFunction@LIEF@@@std@@@std@@XZ
?get_abstract_exported_functions@Binary@MachO@LIEF@@EEBA?AV?$vector@VFunction@LIEF@@V?$allocator@VFunction@LIEF@@@std@@@std@@XZ
?get_abstract_exported_functions@Binary@PE@LIEF@@EEBA?AV?$vector@VFunction@LIEF@@V?$allocator@VFunction@LIEF@@@std@@@std@@XZ
?get_abstract_header@Binary@ELF@LIEF@@MEBA?AVHeader@3@XZ
?get_abstract_header@Binary@MachO@LIEF@@EEBA?AVHeader@3@XZ
?get_abstract_header@Binary@PE@LIEF@@EEBA?AVHeader@3@XZ
?get_abstract_imported_functions@Binary@ELF@LIEF@@MEBA?AV?$vector@VFunction@LIEF@@V?$allocator@VFunction@LIEF@@@std@@@std@@XZ
?get_abstract_imported_functions@Binary@MachO@LIEF@@EEBA?AV?$vector@VFunction@LIEF@@V?$allocator@VFunction@LIEF@@@std@@@std@@XZ
?get_abstract_imported_functions@Binary@PE@LIEF@@EEBA?AV?$vector@VFunction@LIEF@@V?$allocator@VFunction@LIEF@@@std@@@std@@XZ
?get_abstract_imported_libraries@Binary@ELF@LIEF@@MEBA?AV?$vector@V?$basic_string@DU?$char_traits@D@std@@V?$allocator@D@2@@std@@V?$allocator@V?$basic_string@DU?$char_traits@D@std@@V?$allocator@D@2@@std@@@2@@std@@XZ
?get_abstract_imported_libraries@Binary@MachO@LIEF@@EEBA?AV?$vector@V?$basic_string@DU?$char_traits@D@std@@V?$allocator@D@2@@std@@V?$allocator@V?$basic_string@DU?$char_traits@D@std@@V?$allocator@D@2@@std@@@2@@std@@XZ
?get_abstract_imported_libraries@Binary@PE@LIEF@@EEBA?AV?$vector@V?$basic_string@DU?$char_traits@D@std@@V?$allocator@D@2@@std@@V?$allocator@V?$basic_string@DU?$char_traits@D@std@@V?$allocator@D@2@@std@@@2@@std@@XZ
?get_abstract_relocations@Binary@ELF@LIEF@@MEAA?AV?$vector@PEAVRelocation@LIEF@@V?$allocator@PEAVRelocation@LIEF@@@std@@@std@@XZ
?get_abstract_relocations@Binary@MachO@LIEF@@EEAA?AV?$vector@PEAVRelocation@LIEF@@V?$allocator@PEAVRelocation@LIEF@@@std@@@std@@XZ
?get_abstract_relocations@Binary@PE@LIEF@@EEAA?AV?$vector@PEAVRelocation@LIEF@@V?$allocator@PEAVRelocation@LIEF@@@std@@@std@@XZ
?get_abstract_sections@Binary@ELF@LIEF@@MEAA?AV?$vector@PEAVSection@LIEF@@V?$allocator@PEAVSection@LIEF@@@std@@@std@@XZ
?get_abstract_sections@Binary@MachO@LIEF@@EEAA?AV?$vector@PEAVSection@LIEF@@V?$allocator@PEAVSection@LIEF@@@std@@@std@@XZ
?get_abstract_sections@Binary@PE@LIEF@@EEAA?AV?$vector@PEAVSection@LIEF@@V?$allocator@PEAVSection@LIEF@@@std@@@std@@XZ
?get_abstract_symbols@Binary@ELF@LIEF@@MEAA?AV?$vector@PEAVSymbol@LIEF@@V?$allocator@PEAVSymbol@LIEF@@@std@@@std@@XZ
?get_abstract_symbols@Binary@MachO@LIEF@@EEAA?AV?$vector@PEAVSymbol@LIEF@@V?$allocator@PEAVSymbol@LIEF@@@std@@@std@@XZ
?get_abstract_symbols@Binary@PE@LIEF@@EEAA?AV?$vector@PEAVSymbol@LIEF@@V?$allocator@PEAVSymbol@LIEF@@@std@@@std@@XZ
?get_attribute@SignerInfo@PE@LIEF@@QEBAPEBVAttribute@23@W4SIG_ATTRIBUTE_TYPES@23@@Z
?get_auth_attribute@SignerInfo@PE@LIEF@@QEBAPEBVAttribute@23@W4SIG_ATTRIBUTE_TYPES@23@@Z
?get_build@Builder@ELF@LIEF@@QEAAAEBV?$vector@EV?$allocator@E@std@@@std@@XZ
?get_build@Builder@MachO@LIEF@@QEAAAEBV?$vector@EV?$allocator@E@std@@@std@@XZ
?get_build@Builder@PE@LIEF@@QEAAAEBV?$vector@EV?$allocator@E@std@@@std@@XZ
?get_class@Binary@OAT@LIEF@@QEAAPEAVClass@23@AEBV?$basic_string@DU?$char_traits@D@std@@V?$allocator@D@2@@std@@@Z
?get_class@Binary@OAT@LIEF@@QEAAPEAVClass@23@_K@Z
?get_class@Binary@OAT@LIEF@@QEBAPEBVClass@23@AEBV?$basic_string@DU?$char_traits@D@std@@V?$allocator@D@2@@std@@@Z
?get_class@Binary@OAT@LIEF@@QEBAPEBVClass@23@_K@Z
?get_class@File@DEX@LIEF@@QEAAPEAVClass@23@AEBV?$basic_string@DU?$char_traits@D@std@@V?$allocator@D@2@@std@@@Z
?get_class@File@DEX@LIEF@@QEAAPEAVClass@23@_K@Z
?get_class@File@DEX@LIEF@@QEBAPEBVClass@23@AEBV?$basic_string@DU?$char_traits@D@std@@V?$allocator@D@2@@std@@@Z
?get_class@File@DEX@LIEF@@QEBAPEBVClass@23@_K@Z
?get_content_from_virtual_address@Binary@ELF@LIEF@@UEBA?AV?$vector@EV?$allocator@E@std@@@std@@_K0W4VA_TYPES@13@@Z
?get_content_from_virtual_address@Binary@MachO@LIEF@@UEBA?AV?$vector@EV?$allocator@E@std@@@std@@_K0W4VA_TYPES@13@@Z
?get_content_from_virtual_address@Binary@PE@LIEF@@UEBA?AV?$vector@EV?$allocator@E@std@@@std@@_K0W4VA_TYPES@13@@Z
?get_content_size@Segment@ELF@LIEF@@QEBA_KXZ
?get_delay_import@Binary@PE@LIEF@@QEAAPEAVDelayImport@23@AEBV?$basic_string@DU?$char_traits@D@std@@V?$allocator@D@2@@std@@@Z
?get_delay_import@Binary@PE@LIEF@@QEBAPEBVDelayImport@23@AEBV?$basic_string@DU?$char_traits@D@std@@V?$allocator@D@2@@std@@@Z
?get_dynamic_string_table@Parser@ELF@LIEF@@IEBA_KXZ
?get_dynamic_string_table_from_sections@Parser@ELF@LIEF@@IEBA_KXZ
?get_dynamic_string_table_from_segments@Parser@ELF@LIEF@@IEBA_KXZ
?get_dynamic_symbol@Binary@ELF@LIEF@@QEAAPEAVSymbol@23@AEBV?$basic_string@DU?$char_traits@D@std@@V?$allocator@D@2@@std@@@Z
?get_dynamic_symbol@Binary@ELF@LIEF@@QEBAPEBVSymbol@23@AEBV?$basic_string@DU?$char_traits@D@std@@V?$allocator@D@2@@std@@@Z
?get_entry@Import@PE@LIEF@@QEAAPEAVImportEntry@23@AEBV?$basic_string@DU?$char_traits@D@std@@V?$allocator@D@2@@std@@@Z
?get_entry@Import@PE@LIEF@@QEBAPEBVImportEntry@23@AEBV?$basic_string@DU?$char_traits@D@std@@V?$allocator@D@2@@std@@@Z
?get_export@Binary@PE@LIEF@@QEAAAEAVExport@23@XZ
?get_export@Binary@PE@LIEF@@QEBAAEBVExport@23@XZ
?get_function_address@Binary@ELF@LIEF@@QEBA_KAEBV?$basic_string@DU?$char_traits@D@std@@V?$allocator@D@2@@std@@_N@Z
?get_function_address@Binary@ELF@LIEF@@UEBA_KAEBV?$basic_string@DU?$char_traits@D@std@@V?$allocator@D@2@@std@@@Z
?get_function_address@Binary@LIEF@@UEBA_KAEBV?$basic_string@DU?$char_traits@D@std@@V?$allocator@D@2@@std@@@Z
?get_function_rva_from_iat@Import@PE@LIEF@@QEBAIAEBV?$basic_string@DU?$char_traits@D@std@@V?$allocator@D@2@@std@@@Z
?get_imphash@PE@LIEF@@YA?AV?$basic_string@DU?$char_traits@D@std@@V?$allocator@D@2@@std@@AEBVBinary@12@W4IMPHASH_MODE@12@@Z
?get_import@Binary@PE@LIEF@@QEAAPEAVImport@23@AEBV?$basic_string@DU?$char_traits@D@std@@V?$allocator@D@2@@std@@@Z
?get_import@Binary@PE@LIEF@@QEBAPEBVImport@23@AEBV?$basic_string@DU?$char_traits@D@std@@V?$allocator@D@2@@std@@@Z
?get_langs_available@ResourcesManager@PE@LIEF@@QEBA?AV?$set@W4RESOURCE_LANGS@PE@LIEF@@U?$less@W4RESOURCE_LANGS@PE@LIEF@@@std@@V?$allocator@W4RESOURCE_LANGS@PE@LIEF@@@5@@std@@XZ
?get_library@Binary@ELF@LIEF@@QEAAPEAVDynamicEntryLibrary@23@AEBV?$basic_string@DU?$char_traits@D@std@@V?$allocator@D@2@@std@@@Z
?get_library@Binary@ELF@LIEF@@QEBAPEBVDynamicEntryLibrary@23@AEBV?$basic_string@DU?$char_traits@D@std@@V?$allocator@D@2@@std@@@Z
?get_node_type@ResourcesManager@PE@LIEF@@QEAAPEAVResourceNode@23@W4RESOURCE_TYPES@23@@Z
?get_node_type@ResourcesManager@PE@LIEF@@QEBAPEBVResourceNode@23@W4RESOURCE_TYPES@23@@Z
?get_relocation@Binary@ELF@LIEF@@QEAAPEAVRelocation@23@AEBV?$basic_string@DU?$char_traits@D@std@@V?$allocator@D@2@@std@@@Z
?get_relocation@Binary@ELF@LIEF@@QEAAPEAVRelocation@23@AEBVSymbol@23@@Z
?get_relocation@Binary@ELF@LIEF@@QEAAPEAVRelocation@23@_K@Z
?get_relocation@Binary@ELF@LIEF@@QEBAPEBVRelocation@23@AEBV?$basic_string@DU?$char_traits@D@std@@V?$allocator@D@2@@std@@@Z
?get_relocation@Binary@ELF@LIEF@@QEBAPEBVRelocation@23@AEBVSymbol@23@@Z
?get_relocation@Binary@ELF@LIEF@@QEBAPEBVRelocation@23@_K@Z
?get_section@Binary@ELF@LIEF@@QEAAPEAVSection@23@AEBV?$basic_string@DU?$char_traits@D@std@@V?$allocator@D@2@@std@@@Z
?get_section@Binary@ELF@LIEF@@QEBAPEBVSection@23@AEBV?$basic_string@DU?$char_traits@D@std@@V?$allocator@D@2@@std@@@Z
?get_section@Binary@MachO@LIEF@@QEAAPEAVSection@23@AEBV?$basic_string@DU?$char_traits@D@std@@V?$allocator@D@2@@std@@@Z
?get_section@Binary@MachO@LIEF@@QEBAPEBVSection@23@AEBV?$basic_string@DU?$char_traits@D@std@@V?$allocator@D@2@@std@@@Z
?get_section@Binary@PE@LIEF@@QEAAPEAVSection@23@AEBV?$basic_string@DU?$char_traits@D@std@@V?$allocator@D@2@@std@@@Z
?get_section@Binary@PE@LIEF@@QEBAPEBVSection@23@AEBV?$basic_string@DU?$char_traits@D@std@@V?$allocator@D@2@@std@@@Z
?get_segment@Binary@MachO@LIEF@@QEAAPEAVSegmentCommand@23@AEBV?$basic_string@DU?$char_traits@D@std@@V?$allocator@D@2@@std@@@Z
?get_segment@Binary@MachO@LIEF@@QEBAPEBVSegmentCommand@23@AEBV?$basic_string@DU?$char_traits@D@std@@V?$allocator@D@2@@std@@@Z
?get_static_symbol@Binary@ELF@LIEF@@QEAAPEAVSymbol@23@AEBV?$basic_string@DU?$char_traits@D@std@@V?$allocator@D@2@@std@@@Z
?get_static_symbol@Binary@ELF@LIEF@@QEBAPEBVSymbol@23@AEBV?$basic_string@DU?$char_traits@D@std@@V?$allocator@D@2@@std@@@Z
?get_sublangs_available@ResourcesManager@PE@LIEF@@QEBA?AV?$set@W4RESOURCE_SUBLANGS@PE@LIEF@@U?$less@W4RESOURCE_SUBLANGS@PE@LIEF@@@std@@V?$allocator@W4RESOURCE_SUBLANGS@PE@LIEF@@@5@@std@@XZ
?get_symbol@Binary@LIEF@@QEAAPEAVSymbol@2@AEBV?$basic_string@DU?$char_traits@D@std@@V?$allocator@D@2@@std@@@Z
?get_symbol@Binary@LIEF@@QEBAPEBVSymbol@2@AEBV?$basic_string@DU?$char_traits@D@std@@V?$allocator@D@2@@std@@@Z
?get_symbol@Binary@MachO@LIEF@@QEAAPEAVSymbol@23@AEBV?$basic_string@DU?$char_traits@D@std@@V?$allocator@D@2@@std@@@Z
?get_symbol@Binary@MachO@LIEF@@QEBAPEBVSymbol@23@AEBV?$basic_string@DU?$char_traits@D@std@@V?$allocator@D@2@@std@@@Z
?get_type@PE@LIEF@@YA?AV?$result@W4PE_TYPE@PE@LIEF@@@leaf@boost@@AEBV?$basic_string@DU?$char_traits@D@std@@V?$allocator@D@2@@std@@@Z
?get_type@PE@LIEF@@YA?AV?$result@W4PE_TYPE@PE@LIEF@@@leaf@boost@@AEBV?$vector@EV?$allocator@E@std@@@std@@@Z
?get_types_available@ResourcesManager@PE@LIEF@@QEBA?AV?$set@W4RESOURCE_TYPES@PE@LIEF@@U?$less@W4RESOURCE_TYPES@PE@LIEF@@@std@@V?$allocator@W4RESOURCE_TYPES@PE@LIEF@@@5@@std@@XZ
?get_unauth_attribute@SignerInfo@PE@LIEF@@QEBAPEBVAttribute@23@W4SIG_ATTRIBUTE_TYPES@23@@Z
?gid@CorePrPsInfo@ELF@LIEF@@QEAAXI@Z
?gid@CorePrPsInfo@ELF@LIEF@@QEBAIXZ
?global@SymbolVersion@ELF@LIEF@@SA?AV123@XZ
?global_flags_clear@LoadConfiguration@PE@LIEF@@QEAAXI@Z
?global_flags_clear@LoadConfiguration@PE@LIEF@@QEBAIXZ
?global_flags_set@LoadConfiguration@PE@LIEF@@QEAAXI@Z
?global_flags_set@LoadConfiguration@PE@LIEF@@QEBAIXZ
?gnu_hash@Binary@ELF@LIEF@@QEBAPEBVGnuHash@23@XZ
?guard_address_taken_iat_entry_count@LoadConfigurationV3@PE@LIEF@@QEAAX_K@Z
?guard_address_taken_iat_entry_count@LoadConfigurationV3@PE@LIEF@@QEBA_KXZ
?guard_address_taken_iat_entry_table@LoadConfigurationV3@PE@LIEF@@QEAAX_K@Z
?guard_address_taken_iat_entry_table@LoadConfigurationV3@PE@LIEF@@QEBA_KXZ
?guard_cf_check_function_pointer@LoadConfigurationV1@PE@LIEF@@QEAAX_K@Z
?guard_cf_check_function_pointer@LoadConfigurationV1@PE@LIEF@@QEBA_KXZ
?guard_cf_dispatch_function_pointer@LoadConfigurationV1@PE@LIEF@@QEAAX_K@Z
?guard_cf_dispatch_function_pointer@LoadConfigurationV1@PE@LIEF@@QEBA_KXZ
?guard_cf_flags_list@LoadConfigurationV1@PE@LIEF@@QEBA?AV?$set@W4GUARD_CF_FLAGS@PE@LIEF@@U?$less@W4GUARD_CF_FLAGS@PE@LIEF@@@std@@V?$allocator@W4GUARD_CF_FLAGS@PE@LIEF@@@5@@std@@XZ
?guard_cf_function_count@LoadConfigurationV1@PE@LIEF@@QEAAX_K@Z
?guard_cf_function_count@LoadConfigurationV1@PE@LIEF@@QEBA_KXZ
?guard_cf_function_table@LoadConfigurationV1@PE@LIEF@@QEAAX_K@Z
?guard_cf_function_table@LoadConfigurationV1@PE@LIEF@@QEBA_KXZ
?guard_flags@LoadConfigurationV1@PE@LIEF@@QEAAXW4GUARD_CF_FLAGS@23@@Z
?guard_flags@LoadConfigurationV1@PE@LIEF@@QEBA?AW4GUARD_CF_FLAGS@23@XZ
?guard_long_jump_target_count@LoadConfigurationV3@PE@LIEF@@QEAAX_K@Z
?guard_long_jump_target_count@LoadConfigurationV3@PE@LIEF@@QEBA_KXZ
?guard_long_jump_target_table@LoadConfigurationV3@PE@LIEF@@QEAAX_K@Z
?guard_long_jump_target_table@LoadConfigurationV3@PE@LIEF@@QEBA_KXZ
?guard_rf_failure_routine@LoadConfigurationV5@PE@LIEF@@QEAAX_K@Z
?guard_rf_failure_routine@LoadConfigurationV5@PE@LIEF@@QEBA_KXZ
?guard_rf_failure_routine_function_pointer@LoadConfigurationV5@PE@LIEF@@QEAAX_K@Z
?guard_rf_failure_routine_function_pointer@LoadConfigurationV5@PE@LIEF@@QEBA_KXZ
?guard_rf_verify_stackpointer_function_pointer@LoadConfigurationV6@PE@LIEF@@QEAAX_K@Z
?guard_rf_verify_stackpointer_function_pointer@LoadConfigurationV6@PE@LIEF@@QEBA_KXZ
?handle@DelayImport@PE@LIEF@@QEAAXI@Z
?handle@DelayImport@PE@LIEF@@QEBAIXZ
?handler_size@Segment@ELF@LIEF@@AEBA_KXZ
?has@Binary@ELF@LIEF@@QEBA_NW4DYNAMIC_TAGS@23@@Z
?has@Binary@ELF@LIEF@@QEBA_NW4ELF_SECTION_TYPES@23@@Z
?has@Binary@ELF@LIEF@@QEBA_NW4NOTE_TYPES@23@@Z
?has@Binary@ELF@LIEF@@QEBA_NW4SEGMENT_TYPES@23@@Z
?has@Binary@MachO@LIEF@@QEBA_NW4LOAD_COMMAND_TYPES@23@@Z
?has@Binary@PE@LIEF@@QEBA_NW4DATA_DIRECTORY@23@@Z
?has@Class@DEX@LIEF@@QEBA_NW4ACCESS_FLAGS@23@@Z
?has@CoreAuxv@ELF@LIEF@@QEBA_NW4AUX_TYPE@23@@Z
?has@CorePrStatus@ELF@LIEF@@QEBA_NW4REGISTERS@123@@Z
?has@DynamicEntryFlags@ELF@LIEF@@QEBA_NW4DYNAMIC_FLAGS@23@@Z
?has@DynamicEntryFlags@ELF@LIEF@@QEBA_NW4DYNAMIC_FLAGS_1@23@@Z
?has@ExportInfo@MachO@LIEF@@QEBA_NW4EXPORT_SYMBOL_FLAGS@23@@Z
?has@Field@DEX@LIEF@@QEBA_NW4ACCESS_FLAGS@23@@Z
?has@Handler@DataHandler@ELF@LIEF@@QEAA_N_K0W4Type@Node@234@@Z
?has@Header@ELF@LIEF@@QEBA_NW4ARM_EFLAGS@23@@Z
?has@Header@ELF@LIEF@@QEBA_NW4HEXAGON_EFLAGS@23@@Z
?has@Header@ELF@LIEF@@QEBA_NW4MIPS_EFLAGS@23@@Z
?has@Header@ELF@LIEF@@QEBA_NW4PPC64_EFLAGS@23@@Z
?has@Header@MachO@LIEF@@QEBA_NW4HEADER_FLAGS@23@@Z
?has@LoadConfigurationV1@PE@LIEF@@QEBA_NW4GUARD_CF_FLAGS@23@@Z
?has@MapList@DEX@LIEF@@QEBA_NW4TYPES@MapItem@23@@Z
?has@Method@DEX@LIEF@@QEBA_NW4ACCESS_FLAGS@23@@Z
?has@OptionalHeader@PE@LIEF@@QEBA_NW4DLL_CHARACTERISTICS@23@@Z
?has@Section@ELF@LIEF@@QEBA_NAEBVSegment@23@@Z
?has@Section@ELF@LIEF@@QEBA_NW4ELF_SECTION_FLAGS@23@@Z
?has@Section@MachO@LIEF@@QEBA_NW4MACHO_SECTION_FLAGS@23@@Z
?has@Segment@ELF@LIEF@@QEBA_NAEBV?$basic_string@DU?$char_traits@D@std@@V?$allocator@D@2@@std@@@Z
?has@Segment@ELF@LIEF@@QEBA_NAEBVSection@23@@Z
?has@Segment@ELF@LIEF@@QEBA_NW4ELF_SEGMENT_FLAGS@23@@Z
?has@SegmentCommand@MachO@LIEF@@QEBA_NAEBVSection@23@@Z
?has_accelerator@ResourcesManager@PE@LIEF@@QEBA_NXZ
?has_auxiliary_version@SymbolVersion@ELF@LIEF@@QEBA_NXZ
?has_binding_info@Symbol@MachO@LIEF@@QEBA_NXZ
?has_build_version@Binary@MachO@LIEF@@QEBA_NXZ
?has_characteristic@Header@PE@LIEF@@QEBA_NW4HEADER_CHARACTERISTICS@23@@Z
?has_characteristic@Section@PE@LIEF@@QEBA_NW4SECTION_CHARACTERISTICS@23@@Z
?has_class@Binary@OAT@LIEF@@QEBA_NAEBV?$basic_string@DU?$char_traits@D@std@@V?$allocator@D@2@@std@@@Z
?has_class@Field@DEX@LIEF@@QEBA_NXZ
?has_class@File@DEX@LIEF@@QEBA_NAEBV?$basic_string@DU?$char_traits@D@std@@V?$allocator@D@2@@std@@@Z
?has_class@Method@DEX@LIEF@@QEBA_NXZ
?has_code_signature@Binary@MachO@LIEF@@QEBA_NXZ
?has_code_signature_dir@Binary@MachO@LIEF@@QEBA_NXZ
?has_code_view@Debug@PE@LIEF@@QEBA_NXZ
?has_configuration@Binary@PE@LIEF@@QEBA_NXZ
?has_data_directory@TLS@PE@LIEF@@QEBA_NXZ
?has_data_in_code@Binary@MachO@LIEF@@QEBA_NXZ
?has_debug@Binary@PE@LIEF@@QEBA_NXZ
?has_delay_import@Binary@PE@LIEF@@QEBA_NAEBV?$basic_string@DU?$char_traits@D@std@@V?$allocator@D@2@@std@@@Z
?has_delay_imports@Binary@PE@LIEF@@QEBA_NXZ
?has_dex_class@Class@OAT@LIEF@@QEBA_NXZ
?has_dex_file@DexFile@OAT@LIEF@@QEBA_NXZ
?has_dex_method@Method@OAT@LIEF@@QEBA_NXZ
?has_dialogbox_style@ResourceDialog@PE@LIEF@@QEBA_NW4DIALOG_BOX_STYLES@23@@Z
?has_dialogs@ResourcesManager@PE@LIEF@@QEBA_NXZ
?has_dyld_environment@Binary@MachO@LIEF@@QEBA_NXZ
?has_dyld_info@Binary@MachO@LIEF@@QEBA_NXZ
?has_dylinker@Binary@MachO@LIEF@@QEBA_NXZ
?has_dynamic_symbol@Binary@ELF@LIEF@@QEBA_NAEBV?$basic_string@DU?$char_traits@D@std@@V?$allocator@D@2@@std@@@Z
?has_dynamic_symbol_command@Binary@MachO@LIEF@@QEBA_NXZ
?has_encryption_info@Binary@MachO@LIEF@@QEBA_NXZ
?has_entrypoint@Binary@MachO@LIEF@@QEBA_NXZ
?has_exceptions@Binary@PE@LIEF@@QEBA_NXZ
?has_export_info@Symbol@MachO@LIEF@@QEBA_NXZ
?has_exports@Binary@PE@LIEF@@QEBA_NXZ
?has_extended_style@ResourceDialog@PE@LIEF@@QEBA_NW4EXTENDED_WINDOW_STYLES@23@@Z
?has_extended_style@ResourceDialogItem@PE@LIEF@@QEBA_NW4EXTENDED_WINDOW_STYLES@23@@Z
?has_filesets@Binary@MachO@LIEF@@QEBA_NXZ
?has_fixed_file_info@ResourceVersion@PE@LIEF@@QEBA_NXZ
?has_function_starts@Binary@MachO@LIEF@@QEBA_NXZ
?has_html@ResourcesManager@PE@LIEF@@QEBA_NXZ
?has_icons@ResourcesManager@PE@LIEF@@QEBA_NXZ
?has_import@Binary@PE@LIEF@@QEBA_NAEBV?$basic_string@DU?$char_traits@D@std@@V?$allocator@D@2@@std@@@Z
?has_imports@Binary@PE@LIEF@@QEBA_NXZ
?has_interpreter@Binary@ELF@LIEF@@QEBA_NXZ
?has_library@Binary@ELF@LIEF@@QEBA_NAEBV?$basic_string@DU?$char_traits@D@std@@V?$allocator@D@2@@std@@@Z
?has_library@BindingInfo@MachO@LIEF@@QEBA_NXZ
?has_main_command@Binary@MachO@LIEF@@QEBA_NXZ
?has_manifest@ResourcesManager@PE@LIEF@@QEBA_NXZ
?has_name@ResourceNode@PE@LIEF@@QEBA_NXZ
?has_notes@Binary@ELF@LIEF@@QEBA_NXZ
?has_nx@Binary@ELF@LIEF@@UEBA_NXZ
?has_nx@Binary@MachO@LIEF@@UEBA_NXZ
?has_nx@Binary@PE@LIEF@@UEBA_NXZ
?has_overlay@Binary@ELF@LIEF@@QEBA_NXZ
?has_parent@Class@DEX@LIEF@@QEBA_NXZ
?has_pogo@Debug@PE@LIEF@@QEBA_NXZ
?has_private_key@RsaInfo@PE@LIEF@@QEBA_NXZ
?has_public_key@RsaInfo@PE@LIEF@@QEBA_NXZ
?has_relocations@Binary@PE@LIEF@@QEBA_NXZ
?has_resources@Binary@PE@LIEF@@QEBA_NXZ
?has_rich_header@Binary@PE@LIEF@@QEBA_NXZ
?has_rpath@Binary@MachO@LIEF@@QEBA_NXZ
?has_section@Binary@ELF@LIEF@@QEBA_NAEBV?$basic_string@DU?$char_traits@D@std@@V?$allocator@D@2@@std@@@Z
?has_section@Binary@MachO@LIEF@@QEBA_NAEBV?$basic_string@DU?$char_traits@D@std@@V?$allocator@D@2@@std@@@Z
?has_section@DataDirectory@PE@LIEF@@QEBA_NXZ
?has_section@Relocation@ELF@LIEF@@QEBA_NXZ
?has_section@Relocation@MachO@LIEF@@QEBA_NXZ
?has_section@SegmentCommand@MachO@LIEF@@QEBA_NAEBV?$basic_string@DU?$char_traits@D@std@@V?$allocator@D@2@@std@@@Z
?has_section@Symbol@PE@LIEF@@QEBA_NXZ
?has_section@TLS@PE@LIEF@@QEBA_NXZ
?has_section_with_offset@Binary@ELF@LIEF@@QEBA_N_K@Z
?has_section_with_va@Binary@ELF@LIEF@@QEBA_N_K@Z
?has_segment@Binary@MachO@LIEF@@QEBA_NAEBV?$basic_string@DU?$char_traits@D@std@@V?$allocator@D@2@@std@@@Z
?has_segment@BindingInfo@MachO@LIEF@@QEBA_NXZ
?has_segment@Relocation@MachO@LIEF@@QEBA_NXZ
?has_segment@Section@MachO@LIEF@@QEBA_NXZ
?has_segment_split_info@Binary@MachO@LIEF@@QEBA_NXZ
?has_signatures@Binary@PE@LIEF@@QEBA_NXZ
?has_source_version@Binary@MachO@LIEF@@QEBA_NXZ
?has_static_symbol@Binary@ELF@LIEF@@QEBA_NAEBV?$basic_string@DU?$char_traits@D@std@@V?$allocator@D@2@@std@@@Z
?has_string_file_info@ResourceVersion@PE@LIEF@@QEBA_NXZ
?has_string_table@ResourcesManager@PE@LIEF@@QEBA_NXZ
?has_style@ResourceDialog@PE@LIEF@@QEBA_NW4WINDOW_STYLES@23@@Z
?has_style@ResourceDialogItem@PE@LIEF@@QEBA_NW4WINDOW_STYLES@23@@Z
?has_sub_framework@Binary@MachO@LIEF@@QEBA_NXZ
?has_symbol@Binary@LIEF@@QEBA_NAEBV?$basic_string@DU?$char_traits@D@std@@V?$allocator@D@2@@std@@@Z
?has_symbol@Binary@MachO@LIEF@@QEBA_NAEBV?$basic_string@DU?$char_traits@D@std@@V?$allocator@D@2@@std@@@Z
?has_symbol@BindingInfo@MachO@LIEF@@QEBA_NXZ
?has_symbol@ExportInfo@MachO@LIEF@@QEBA_NXZ
?has_symbol@Relocation@ELF@LIEF@@QEBA_NXZ
?has_symbol@Relocation@MachO@LIEF@@QEBA_NXZ
?has_symbol_command@Binary@MachO@LIEF@@QEBA_NXZ
?has_thread_command@Binary@MachO@LIEF@@QEBA_NXZ
?has_tls@Binary@PE@LIEF@@QEBA_NXZ
?has_type@ResourcesManager@PE@LIEF@@QEBA_NW4RESOURCE_TYPES@23@@Z
?has_uuid@Binary@MachO@LIEF@@QEBA_NXZ
?has_var_file_info@ResourceVersion@PE@LIEF@@QEBA_NXZ
?has_vdex@Binary@OAT@LIEF@@QEBA_NXZ
?has_vdex@Parser@OAT@LIEF@@IEBA_NXZ
?has_version@ResourcesManager@PE@LIEF@@QEBA_NXZ
?has_version@Symbol@ELF@LIEF@@QEBA_NXZ
?has_version_min@Binary@MachO@LIEF@@QEBA_NXZ
?hash32@ELF@LIEF@@YAKPEBD@Z
?hash64@ELF@LIEF@@YAKPEBD@Z
?hash@AbstractHash@LIEF@@SA_KAEBVObject@2@@Z
?hash@Binary@ELF@LIEF@@QEAA_KAEBV?$basic_string@DU?$char_traits@D@std@@V?$allocator@D@2@@std@@@Z
?hash@Hash@ART@LIEF@@SA_KAEBVObject@3@@Z
?hash@Hash@DEX@LIEF@@SA_KAEBVObject@3@@Z
?hash@Hash@ELF@LIEF@@SA_KAEBVObject@3@@Z
?hash@Hash@LIEF@@SA_KAEBV?$vector@EV?$allocator@E@std@@@std@@@Z
?hash@Hash@LIEF@@SA_KPEBX_K@Z
?hash@Hash@LIEF@@SA_KV?$span@$$CBE$0?0@tcb@@@Z
?hash@Hash@MachO@LIEF@@SA_KAEBVObject@3@@Z
?hash@Hash@OAT@LIEF@@SA_KAEBVObject@3@@Z
?hash@Hash@PE@LIEF@@SA_KAEBVObject@3@@Z
?hash@Hash@VDEX@LIEF@@SA_KAEBVObject@3@@Z
?hash@LIEF@@YA_KAEBV?$vector@EV?$allocator@E@std@@@std@@@Z
?hash@LIEF@@YA_KAEBVObject@1@@Z
?hash@LIEF@@YA_KV?$span@$$CBE$0?0@tcb@@@Z
?hash@RichHeader@PE@LIEF@@QEBA?AV?$vector@EV?$allocator@E@std@@@std@@W4ALGORITHMS@23@@Z
?hash@RichHeader@PE@LIEF@@QEBA?AV?$vector@EV?$allocator@E@std@@@std@@W4ALGORITHMS@23@I@Z
?hash@Signature@PE@LIEF@@SA?AV?$vector@EV?$allocator@E@std@@@std@@AEBV45@W4ALGORITHMS@23@@Z
?hash@SymbolVersionAuxRequirement@ELF@LIEF@@QEAAXI@Z
?hash@SymbolVersionAuxRequirement@ELF@LIEF@@QEBAIXZ
?hash@SymbolVersionDefinition@ELF@LIEF@@QEAAXI@Z
?hash@SymbolVersionDefinition@ELF@LIEF@@QEBAIXZ
?hash_section@Binary@ELF@LIEF@@QEAAPEAVSection@23@XZ
?hash_values@GnuHash@ELF@LIEF@@QEBAAEBV?$vector@IV?$allocator@I@std@@@std@@XZ
?header@Binary@ELF@LIEF@@QEAAAEAVHeader@23@XZ
?header@Binary@ELF@LIEF@@QEBAAEBVHeader@23@XZ
?header@Binary@LIEF@@QEBA?AVHeader@2@XZ
?header@Binary@MachO@LIEF@@QEAAAEAVHeader@23@XZ
?header@Binary@MachO@LIEF@@QEBAAEBVHeader@23@XZ
?header@Binary@OAT@LIEF@@QEAAAEAVHeader@23@XZ
?header@Binary@OAT@LIEF@@QEBAAEBVHeader@23@XZ
?header@Binary@PE@LIEF@@QEAAAEAVHeader@23@XZ
?header@Binary@PE@LIEF@@QEBAAEBVHeader@23@XZ
?header@File@ART@LIEF@@QEAAAEAVHeader@23@XZ
?header@File@ART@LIEF@@QEBAAEBVHeader@23@XZ
?header@File@DEX@LIEF@@QEAAAEAVHeader@23@XZ
?header@File@DEX@LIEF@@QEBAAEBVHeader@23@XZ
?header@File@VDEX@LIEF@@QEAAAEAVHeader@23@XZ
?header@File@VDEX@LIEF@@QEBAAEBVHeader@23@XZ
?header_size@Header@DEX@LIEF@@QEBAIXZ
?header_size@Header@ELF@LIEF@@QEAAXI@Z
?header_size@Header@ELF@LIEF@@QEBAIXZ
?header_size_in_paragraphs@DosHeader@PE@LIEF@@QEAAXG@Z
?header_size_in_paragraphs@DosHeader@PE@LIEF@@QEBAGXZ
?height@ResourceIcon@PE@LIEF@@QEAAXE@Z
?height@ResourceIcon@PE@LIEF@@QEBAEXZ
?help_id@ResourceDialog@PE@LIEF@@QEBAIXZ
?help_id@ResourceDialogItem@PE@LIEF@@QEBAIXZ
?hex_dump@LIEF@@YA?AV?$basic_string@DU?$char_traits@D@std@@V?$allocator@D@2@@std@@AEBV?$vector@EV?$allocator@E@std@@@3@AEBV23@@Z
?hex_str@LIEF@@YA?AV?$basic_string@DU?$char_traits@D@std@@V?$allocator@D@2@@std@@E@Z
?hexagon_flags_list@Header@ELF@LIEF@@QEBA?AV?$set@W4HEXAGON_EFLAGS@ELF@LIEF@@U?$less@W4HEXAGON_EFLAGS@ELF@LIEF@@@std@@V?$allocator@W4HEXAGON_EFLAGS@ELF@LIEF@@@5@@std@@XZ
?hint@DelayImportEntry@PE@LIEF@@QEBAGXZ
?hint@ImportEntry@PE@LIEF@@QEBAGXZ
?hint_name_rva@DelayImportEntry@PE@LIEF@@QEBA_KXZ
?hint_name_rva@ImportEntry@PE@LIEF@@QEBA_KXZ
?hook_function@Binary@PE@LIEF@@QEAAXAEBV?$basic_string@DU?$char_traits@D@std@@V?$allocator@D@2@@std@@0_K@Z
?hook_function@Binary@PE@LIEF@@QEAAXAEBV?$basic_string@DU?$char_traits@D@std@@V?$allocator@D@2@@std@@_K@Z
?hotpatch_table_offset@LoadConfigurationV6@PE@LIEF@@QEAAXI@Z
?hotpatch_table_offset@LoadConfigurationV6@PE@LIEF@@QEBAIXZ
?html@ResourcesManager@PE@LIEF@@QEBA?AV?$vector@V?$basic_string@DU?$char_traits@D@std@@V?$allocator@D@2@@std@@V?$allocator@V?$basic_string@DU?$char_traits@D@std@@V?$allocator@D@2@@std@@@2@@std@@XZ
?hybrid_metadata_pointer@LoadConfigurationV4@PE@LIEF@@QEAAX_K@Z
?hybrid_metadata_pointer@LoadConfigurationV4@PE@LIEF@@QEBA_KXZ
?i2c_code_bridge_offset@Header@OAT@LIEF@@QEBAIXZ
?i2i_bridge_offset@Header@OAT@LIEF@@QEBAIXZ
?iat@DelayImport@PE@LIEF@@QEAAXI@Z
?iat@DelayImport@PE@LIEF@@QEBAIXZ
?iat_address@ImportEntry@PE@LIEF@@QEBA_KXZ
?iat_directory@Import@PE@LIEF@@QEAAPEAVDataDirectory@23@XZ
?iat_directory@Import@PE@LIEF@@QEBAPEBVDataDirectory@23@XZ
?iat_value@DelayImportEntry@PE@LIEF@@QEBA_KXZ
?iat_value@ImportEntry@PE@LIEF@@QEBA_KXZ
?icons@ResourcesManager@PE@LIEF@@QEBA?AV?$ref_iterator@$$CBV?$vector@VResourceIcon@PE@LIEF@@V?$allocator@VResourceIcon@PE@LIEF@@@std@@@std@@VResourceIcon@PE@LIEF@@V?$_Vector_const_iterator@V?$_Vector_val@U?$_Simple_types@VResourceIcon@PE@LIEF@@@std@@@std@@@2@@3@XZ
?id@ResourceAccelerator@PE@LIEF@@QEBAGXZ
?id@ResourceDialogItem@PE@LIEF@@QEBAIXZ
?id@ResourceIcon@PE@LIEF@@QEAAXI@Z
?id@ResourceIcon@PE@LIEF@@QEBAIXZ
?id@ResourceNode@PE@LIEF@@QEAAXI@Z
?id@ResourceNode@PE@LIEF@@QEBAIXZ
?id@RichEntry@PE@LIEF@@QEAAXG@Z
?id@RichEntry@PE@LIEF@@QEBAGXZ
?id_dylib@DylibCommand@MachO@LIEF@@SA?AV123@AEBV?$basic_string@DU?$char_traits@D@std@@V?$allocator@D@2@@std@@III@Z
?identity@Header@ELF@LIEF@@QEAAAEAV?$array@E$0BA@@std@@XZ
?identity@Header@ELF@LIEF@@QEAAXAEBV?$array@E$0BA@@std@@@Z
?identity@Header@ELF@LIEF@@QEAAXAEBV?$basic_string@DU?$char_traits@D@std@@V?$allocator@D@2@@std@@@Z
?identity@Header@ELF@LIEF@@QEBAAEBV?$array@E$0BA@@std@@XZ
?identity_abi_version@Header@ELF@LIEF@@QEAAXI@Z
?identity_abi_version@Header@ELF@LIEF@@QEBAIXZ
?identity_class@Header@ELF@LIEF@@QEAAXW4ELF_CLASS@23@@Z
?identity_class@Header@ELF@LIEF@@QEBA?AW4ELF_CLASS@23@XZ
?identity_data@Header@ELF@LIEF@@QEAAXW4ELF_DATA@23@@Z
?identity_data@Header@ELF@LIEF@@QEBA?AW4ELF_DATA@23@XZ
?identity_os_abi@Header@ELF@LIEF@@QEAAXW4OS_ABI@23@@Z
?identity_os_abi@Header@ELF@LIEF@@QEBA?AW4OS_ABI@23@XZ
?identity_version@Header@ELF@LIEF@@QEAAXW4VERSION@23@@Z
?identity_version@Header@ELF@LIEF@@QEBA?AW4VERSION@23@XZ
?idx_external_define_symbol@DynamicSymbolCommand@MachO@LIEF@@QEAAXI@Z
?idx_external_define_symbol@DynamicSymbolCommand@MachO@LIEF@@QEBAIXZ
?idx_local_symbol@DynamicSymbolCommand@MachO@LIEF@@QEAAXI@Z
?idx_local_symbol@DynamicSymbolCommand@MachO@LIEF@@QEBAIXZ
?idx_undefined_symbol@DynamicSymbolCommand@MachO@LIEF@@QEAAXI@Z
?idx_undefined_symbol@DynamicSymbolCommand@MachO@LIEF@@QEBAIXZ
?image_begin@Header@ART@LIEF@@QEBAIXZ
?image_file_location_oat_checksum@Header@OAT@LIEF@@QEBAIXZ
?image_file_location_oat_data_begin@Header@OAT@LIEF@@QEBAIXZ
?image_patch_delta@Header@OAT@LIEF@@QEBAHXZ
?image_roots@Header@ART@LIEF@@QEBAIXZ
?image_size@Header@ART@LIEF@@QEBAIXZ
?imagebase@Binary@ELF@LIEF@@UEBA_KXZ
?imagebase@Binary@MachO@LIEF@@UEBA_KXZ
?imagebase@Binary@PE@LIEF@@UEBA_KXZ
?imagebase@OptionalHeader@PE@LIEF@@QEAAX_K@Z
?imagebase@OptionalHeader@PE@LIEF@@QEBA_KXZ
?import_address_table_rva@Import@PE@LIEF@@QEAAXI@Z
?import_address_table_rva@Import@PE@LIEF@@QEBAIXZ
?import_lookup_table_rva@Import@PE@LIEF@@QEAAXI@Z
?import_lookup_table_rva@Import@PE@LIEF@@QEBAIXZ
?import_section@Binary@PE@LIEF@@QEAAPEAVSection@23@XZ
?import_section@Binary@PE@LIEF@@QEBAPEBVSection@23@XZ
?imported_functions@Binary@LIEF@@QEBA?AV?$vector@VFunction@LIEF@@V?$allocator@VFunction@LIEF@@@std@@@std@@XZ
?imported_libraries@Binary@LIEF@@QEBA?AV?$vector@V?$basic_string@DU?$char_traits@D@std@@V?$allocator@D@2@@std@@V?$allocator@V?$basic_string@DU?$char_traits@D@std@@V?$allocator@D@2@@std@@@2@@std@@XZ
?imported_symbols@Binary@ELF@LIEF@@QEAA?AV?$filter_iterator@V?$vector@PEAVSymbol@ELF@LIEF@@V?$allocator@PEAVSymbol@ELF@LIEF@@@std@@@std@@PEAVSymbol@ELF@LIEF@@V?$_Vector_iterator@V?$_Vector_val@U?$_Simple_types@PEAVSymbol@ELF@LIEF@@@std@@@std@@@2@@3@XZ
?imported_symbols@Binary@ELF@LIEF@@QEBA?AV?$filter_iterator@$$CBV?$vector@PEAVSymbol@ELF@LIEF@@V?$allocator@PEAVSymbol@ELF@LIEF@@@std@@@std@@PEAVSymbol@ELF@LIEF@@V?$_Vector_const_iterator@V?$_Vector_val@U?$_Simple_types@PEAVSymbol@ELF@LIEF@@@std@@@std@@@2@@3@XZ
?imported_symbols@Binary@MachO@LIEF@@QEAA?AV?$filter_iterator@AEAV?$vector@V?$unique_ptr@VSymbol@MachO@LIEF@@U?$default_delete@VSymbol@MachO@LIEF@@@std@@@std@@V?$allocator@V?$unique_ptr@VSymbol@MachO@LIEF@@U?$default_delete@VSymbol@MachO@LIEF@@@std@@@std@@@2@@std@@PEAVSymbol@MachO@LIEF@@V?$_Vector_iterator@V?$_Vector_val@U?$_Simple_types@V?$unique_ptr@VSymbol@MachO@LIEF@@U?$default_delete@VSymbol@MachO@LIEF@@@std@@@std@@@std@@@std@@@2@@3@XZ
?imported_symbols@Binary@MachO@LIEF@@QEBA?AV?$filter_iterator@AEBV?$vector@V?$unique_ptr@VSymbol@MachO@LIEF@@U?$default_delete@VSymbol@MachO@LIEF@@@std@@@std@@V?$allocator@V?$unique_ptr@VSymbol@MachO@LIEF@@U?$default_delete@VSymbol@MachO@LIEF@@@std@@@std@@@2@@std@@PEBVSymbol@MachO@LIEF@@V?$_Vector_const_iterator@V?$_Vector_val@U?$_Simple_types@V?$unique_ptr@VSymbol@MachO@LIEF@@U?$default_delete@VSymbol@MachO@LIEF@@@std@@@std@@@std@@@std@@@2@@3@XZ
?imports@Binary@PE@LIEF@@QEAA?AV?$ref_iterator@AEAV?$vector@VImport@PE@LIEF@@V?$allocator@VImport@PE@LIEF@@@std@@@std@@VImport@PE@LIEF@@V?$_Vector_iterator@V?$_Vector_val@U?$_Simple_types@VImport@PE@LIEF@@@std@@@std@@@2@@3@XZ
?imports@Binary@PE@LIEF@@QEBA?AV?$ref_iterator@AEBV?$vector@VImport@PE@LIEF@@V?$allocator@VImport@PE@LIEF@@@std@@@std@@VImport@PE@LIEF@@V?$_Vector_const_iterator@V?$_Vector_val@U?$_Simple_types@VImport@PE@LIEF@@@std@@@std@@@2@@3@XZ
?index@Class@DEX@LIEF@@QEBA_KXZ
?index@Class@OAT@LIEF@@QEBA_KXZ
?index@Field@DEX@LIEF@@QEBA_KXZ
?index@Method@DEX@LIEF@@QEBA_KXZ
?index@SegmentCommand@MachO@LIEF@@QEBACXZ
?indirect_symbol_offset@DynamicSymbolCommand@MachO@LIEF@@QEAAXI@Z
?indirect_symbol_offset@DynamicSymbolCommand@MachO@LIEF@@QEBAIXZ
?info@Relocation@ELF@LIEF@@QEAAXI@Z
?info@Relocation@ELF@LIEF@@QEBAIXZ
?information@Section@ELF@LIEF@@QEAAXI@Z
?information@Section@ELF@LIEF@@QEBA_KXZ
?information@Symbol@ELF@LIEF@@QEAAXE@Z
?information@Symbol@ELF@LIEF@@QEBAEXZ
?init@Parser@ART@LIEF@@AEAAXAEBV?$basic_string@DU?$char_traits@D@std@@V?$allocator@D@2@@std@@I@Z
?init@Parser@DEX@LIEF@@AEAAXAEBV?$basic_string@DU?$char_traits@D@std@@V?$allocator@D@2@@std@@I@Z
?init@Parser@ELF@LIEF@@IEAA?AV?$result@Uok_t@LIEF@@@leaf@boost@@AEBV?$basic_string@DU?$char_traits@D@std@@V?$allocator@D@2@@std@@@Z
?init@Parser@OAT@LIEF@@IEAAXAEBV?$basic_string@DU?$char_traits@D@std@@V?$allocator@D@2@@std@@@Z
?init@Parser@PE@LIEF@@AEAAXAEBV?$basic_string@DU?$char_traits@D@std@@V?$allocator@D@2@@std@@@Z
?init@Parser@VDEX@LIEF@@AEAAXAEBV?$basic_string@DU?$char_traits@D@std@@V?$allocator@D@2@@std@@I@Z
?init_and_parse@BinaryParser@MachO@LIEF@@AEAA?AV?$result@Uok_t@LIEF@@@leaf@boost@@XZ
?init_protection@SegmentCommand@MachO@LIEF@@QEAAXI@Z
?init_protection@SegmentCommand@MachO@LIEF@@QEBAIXZ
?initial_ip@DosHeader@PE@LIEF@@QEAAXG@Z
?initial_ip@DosHeader@PE@LIEF@@QEBAGXZ
?initial_relative_cs@DosHeader@PE@LIEF@@QEAAXG@Z
?initial_relative_cs@DosHeader@PE@LIEF@@QEBAGXZ
?initial_relative_ss@DosHeader@PE@LIEF@@QEAAXG@Z
?initial_relative_ss@DosHeader@PE@LIEF@@QEBAGXZ
?initial_sp@DosHeader@PE@LIEF@@QEAAXG@Z
?initial_sp@DosHeader@PE@LIEF@@QEBAGXZ
?insert@DynamicEntryArray@ELF@LIEF@@QEAAAEAV123@_K0@Z
?insert@DynamicEntryRpath@ELF@LIEF@@QEAAAEAV123@_KAEBV?$basic_string@DU?$char_traits@D@std@@V?$allocator@D@2@@std@@@Z
?insert@DynamicEntryRunPath@ELF@LIEF@@QEAAAEAV123@_KAEBV?$basic_string@DU?$char_traits@D@std@@V?$allocator@D@2@@std@@@Z
?insert_dex2dex_info@Method@DEX@LIEF@@QEAAXII@Z
?inst_format_from_opcode@DEX@LIEF@@YA?AW4INST_FORMATS@12@W4OPCODES@12@@Z
?inst_size_from_format@DEX@LIEF@@YA_KW4INST_FORMATS@12@@Z
?inst_size_from_opcode@DEX@LIEF@@YA_KW4OPCODES@12@@Z
?instruction_set@Header@OAT@LIEF@@QEBA?AW4INSTRUCTION_SETS@23@XZ
?int2version@DylibCommand@MachO@LIEF@@SA?AV?$array@G$02@std@@I@Z
?interpreter@Binary@ELF@LIEF@@QEAAXAEBV?$basic_string@DU?$char_traits@D@std@@V?$allocator@D@2@@std@@@Z
?interpreter@Binary@ELF@LIEF@@QEBAAEBV?$basic_string@DU?$char_traits@D@std@@V?$allocator@D@2@@std@@XZ
?is_32@Header@LIEF@@QEBA_NXZ
?is_64@Header@LIEF@@QEBA_NXZ
?is_64@MachO@LIEF@@YA_NAEBV?$basic_string@DU?$char_traits@D@std@@V?$allocator@D@2@@std@@@Z
?is_android@Note@ELF@LIEF@@QEBA_NXZ
?is_art@ART@LIEF@@YA_NAEBV?$basic_string@DU?$char_traits@D@std@@V?$allocator@D@2@@std@@@Z
?is_art@ART@LIEF@@YA_NAEBV?$vector@EV?$allocator@E@std@@@std@@@Z
?is_ca@x509@PE@LIEF@@QEBA_NXZ
?is_compiled@Method@OAT@LIEF@@QEBA_NXZ
?is_core@Note@ELF@LIEF@@QEBA_NXZ
?is_data@ResourceNode@PE@LIEF@@QEBA_NXZ
?is_dex2dex_optimized@Method@OAT@LIEF@@QEBA_NXZ
?is_dex@DEX@LIEF@@YA_NAEBV?$basic_string@DU?$char_traits@D@std@@V?$allocator@D@2@@std@@@Z
?is_dex@DEX@LIEF@@YA_NAEBV?$vector@EV?$allocator@E@std@@@std@@@Z
?is_directory@ResourceNode@PE@LIEF@@QEBA_NXZ
?is_elf@ELF@LIEF@@YA_NAEBV?$basic_string@DU?$char_traits@D@std@@V?$allocator@D@2@@std@@@Z
?is_elf@ELF@LIEF@@YA_NAEBV?$vector@EV?$allocator@E@std@@@std@@@Z
?is_exported@Binary@MachO@LIEF@@SA_NAEBVSymbol@23@@Z
?is_exported@Symbol@ELF@LIEF@@QEBA_NXZ
?is_extended@ResourceDialog@PE@LIEF@@QEBA_NXZ
?is_extended@ResourceDialogItem@PE@LIEF@@QEBA_NXZ
?is_extern@ExportEntry@PE@LIEF@@QEAAX_N@Z
?is_extern@ExportEntry@PE@LIEF@@QEBA_NXZ
?is_external@Symbol@MachO@LIEF@@QEBA_NXZ
?is_fat@MachO@LIEF@@YA_NAEBV?$basic_string@DU?$char_traits@D@std@@V?$allocator@D@2@@std@@@Z
?is_forwarded@ExportEntry@PE@LIEF@@QEBA_NXZ
?is_function@Symbol@ELF@LIEF@@QEBA_NXZ
?is_hex_number@LIEF@@YA_NAEBV?$basic_string@DU?$char_traits@D@std@@V?$allocator@D@2@@std@@@Z
?is_imported@Binary@MachO@LIEF@@SA_NAEBVSymbol@23@@Z
?is_imported@Symbol@ELF@LIEF@@QEBA_NXZ
?is_italic@ResourceDialog@PE@LIEF@@QEBA_NXZ
?is_macho@MachO@LIEF@@YA_NAEBV?$basic_string@DU?$char_traits@D@std@@V?$allocator@D@2@@std@@@Z
?is_macho@MachO@LIEF@@YA_NAEBV?$vector@EV?$allocator@E@std@@@std@@@Z
?is_non_weak_definition@BindingInfo@MachO@LIEF@@QEBA_NXZ
?is_oat@OAT@LIEF@@YA_NAEBV?$basic_string@DU?$char_traits@D@std@@V?$allocator@D@2@@std@@@Z
?is_oat@OAT@LIEF@@YA_NAEBV?$vector@EV?$allocator@E@std@@@std@@@Z
?is_oat@OAT@LIEF@@YA_NAEBVBinary@ELF@2@@Z
?is_ordinal@DelayImportEntry@PE@LIEF@@QEBA_NXZ
?is_ordinal@ImportEntry@PE@LIEF@@QEBA_NXZ
?is_pc_relative@RelocationDyld@MachO@LIEF@@UEBA_NXZ
?is_pc_relative@RelocationObject@MachO@LIEF@@UEBA_NXZ
?is_pe@PE@LIEF@@YA_NAEBV?$basic_string@DU?$char_traits@D@std@@V?$allocator@D@2@@std@@@Z
?is_pe@PE@LIEF@@YA_NAEBV?$vector@EV?$allocator@E@std@@@std@@@Z
?is_pie@Binary@ELF@LIEF@@UEBA_NXZ
?is_pie@Binary@MachO@LIEF@@UEBA_NXZ
?is_pie@Binary@PE@LIEF@@UEBA_NXZ
?is_printable@LIEF@@YA_NAEBV?$basic_string@DU?$char_traits@D@std@@V?$allocator@D@2@@std@@@Z
?is_quickened@Class@OAT@LIEF@@QEBA_NAEBVMethod@DEX@3@@Z
?is_quickened@Class@OAT@LIEF@@QEBA_NI@Z
?is_rel@Relocation@ELF@LIEF@@QEBA_NXZ
?is_rela@Relocation@ELF@LIEF@@QEBA_NXZ
?is_reproducible_build@Binary@PE@LIEF@@QEBA_NXZ
?is_scattered@RelocationObject@MachO@LIEF@@QEBA_NXZ
?is_static@Field@DEX@LIEF@@QEBA_NXZ
?is_static@Symbol@ELF@LIEF@@QEBA_NXZ
?is_switch_array@DEX@LIEF@@YA_NPEBE0@Z
?is_trusted_by@x509@PE@LIEF@@QEBA?AW4VERIFICATION_FLAGS@123@AEBV?$vector@Vx509@PE@LIEF@@V?$allocator@Vx509@PE@LIEF@@@std@@@std@@@Z
?is_type@Section@PE@LIEF@@QEBA_NW4PE_SECTION_TYPES@23@@Z
?is_valid_addr@Binary@MachO@LIEF@@QEBA_N_K@Z
?is_valid_dll_name@Parser@PE@LIEF@@SA_NAEBV?$basic_string@DU?$char_traits@D@std@@V?$allocator@D@2@@std@@@Z
?is_valid_import_name@Parser@PE@LIEF@@SA_NAEBV?$basic_string@DU?$char_traits@D@std@@V?$allocator@D@2@@std@@@Z
?is_variable@Symbol@ELF@LIEF@@QEBA_NXZ
?is_vdex@VDEX@LIEF@@YA_NAEBV?$basic_string@DU?$char_traits@D@std@@V?$allocator@D@2@@std@@@Z
?is_vdex@VDEX@LIEF@@YA_NAEBV?$vector@EV?$allocator@E@std@@@std@@@Z
?is_virtual@Method@DEX@LIEF@@QEBA_NXZ
?is_weak_import@BindingInfo@MachO@LIEF@@QEBA_NXZ
?issuer@SignerInfo@PE@LIEF@@QEBAAEBV?$basic_string@DU?$char_traits@D@std@@V?$allocator@D@2@@std@@XZ
?issuer@x509@PE@LIEF@@QEBA?AV?$basic_string@DU?$char_traits@D@std@@V?$allocator@D@2@@std@@XZ
?items@LangCodeItem@PE@LIEF@@QEAAAEAV?$unordered_map@V?$basic_string@_SU?$char_traits@_S@std@@V?$allocator@_S@2@@std@@V12@U?$hash@V?$basic_string@_SU?$char_traits@_S@std@@V?$allocator@_S@2@@std@@@2@U?$equal_to@V?$basic_string@_SU?$char_traits@_S@std@@V?$allocator@_S@2@@std@@@2@V?$allocator@U?$pair@$$CBV?$basic_string@_SU?$char_traits@_S@std@@V?$allocator@_S@2@@std@@V12@@std@@@2@@std@@XZ
?items@LangCodeItem@PE@LIEF@@QEAAXAEBV?$unordered_map@V?$basic_string@_SU?$char_traits@_S@std@@V?$allocator@_S@2@@std@@V12@U?$hash@V?$basic_string@_SU?$char_traits@_S@std@@V?$allocator@_S@2@@std@@@2@U?$equal_to@V?$basic_string@_SU?$char_traits@_S@std@@V?$allocator@_S@2@@std@@@2@V?$allocator@U?$pair@$$CBV?$basic_string@_SU?$char_traits@_S@std@@V?$allocator@_S@2@@std@@V12@@std@@@2@@std@@@Z
?items@LangCodeItem@PE@LIEF@@QEBAAEBV?$unordered_map@V?$basic_string@_SU?$char_traits@_S@std@@V?$allocator@_S@2@@std@@V12@U?$hash@V?$basic_string@_SU?$char_traits@_S@std@@V?$allocator@_S@2@@std@@@2@U?$equal_to@V?$basic_string@_SU?$char_traits@_S@std@@V?$allocator@_S@2@@std@@@2@V?$allocator@U?$pair@$$CBV?$basic_string@_SU?$char_traits@_S@std@@V?$allocator@_S@2@@std@@V12@@std@@@2@@std@@XZ
?items@MapList@DEX@LIEF@@QEAA?AV?$ref_iterator@V?$vector@PEAVMapItem@DEX@LIEF@@V?$allocator@PEAVMapItem@DEX@LIEF@@@std@@@std@@PEAVMapItem@DEX@LIEF@@V?$_Vector_iterator@V?$_Vector_val@U?$_Simple_types@PEAVMapItem@DEX@LIEF@@@std@@@std@@@2@@3@XZ
?items@MapList@DEX@LIEF@@QEBA?AV?$ref_iterator@$$CBV?$vector@PEAVMapItem@DEX@LIEF@@V?$allocator@PEAVMapItem@DEX@LIEF@@@std@@@std@@PEAVMapItem@DEX@LIEF@@V?$_Vector_const_iterator@V?$_Vector_val@U?$_Simple_types@PEAVMapItem@DEX@LIEF@@@std@@@std@@@2@@3@XZ
?items@ResourceDialog@PE@LIEF@@QEBA?AV?$ref_iterator@AEBV?$vector@VResourceDialogItem@PE@LIEF@@V?$allocator@VResourceDialogItem@PE@LIEF@@@std@@@std@@VResourceDialogItem@PE@LIEF@@V?$_Vector_const_iterator@V?$_Vector_val@U?$_Simple_types@VResourceDialogItem@PE@LIEF@@@std@@@std@@@2@@3@XZ
?jni_dlsym_lookup_offset@Header@OAT@LIEF@@QEBAIXZ
?key@LangCodeItem@PE@LIEF@@QEAAXAEBV?$basic_string@DU?$char_traits@D@std@@V?$allocator@D@2@@std@@@Z
?key@LangCodeItem@PE@LIEF@@QEAAXAEBV?$basic_string@_SU?$char_traits@_S@std@@V?$allocator@_S@2@@std@@@Z
?key@LangCodeItem@PE@LIEF@@QEBAAEBV?$basic_string@_SU?$char_traits@_S@std@@V?$allocator@_S@2@@std@@XZ
?key@ResourceStringFileInfo@PE@LIEF@@QEAAXAEBV?$basic_string@DU?$char_traits@D@std@@V?$allocator@D@2@@std@@@Z
?key@ResourceStringFileInfo@PE@LIEF@@QEAAXAEBV?$basic_string@_SU?$char_traits@_S@std@@V?$allocator@_S@2@@std@@@Z
?key@ResourceStringFileInfo@PE@LIEF@@QEBAAEBV?$basic_string@_SU?$char_traits@_S@std@@V?$allocator@_S@2@@std@@XZ
?key@ResourceVarFileInfo@PE@LIEF@@QEAAXAEBV?$basic_string@DU?$char_traits@D@std@@V?$allocator@D@2@@std@@@Z
?key@ResourceVarFileInfo@PE@LIEF@@QEAAXAEBV?$basic_string@_SU?$char_traits@_S@std@@V?$allocator@_S@2@@std@@@Z
?key@ResourceVarFileInfo@PE@LIEF@@QEBAAEBV?$basic_string@_SU?$char_traits@_S@std@@V?$allocator@_S@2@@std@@XZ
?key@ResourceVersion@PE@LIEF@@QEAAXAEBV?$basic_string@DU?$char_traits@D@std@@V?$allocator@D@2@@std@@@Z
?key@ResourceVersion@PE@LIEF@@QEAAXAEBV?$basic_string@_SU?$char_traits@_S@std@@V?$allocator@_S@2@@std@@@Z
?key@ResourceVersion@PE@LIEF@@QEBAAEBV?$basic_string@_SU?$char_traits@_S@std@@V?$allocator@_S@2@@std@@XZ
?key@RichHeader@PE@LIEF@@QEAAXI@Z
?key@RichHeader@PE@LIEF@@QEBAIXZ
?key_size@RsaInfo@PE@LIEF@@QEBA_KXZ
?key_to_string@Header@OAT@LIEF@@SA?AV?$basic_string@DU?$char_traits@D@std@@V?$allocator@D@2@@std@@W4HEADER_KEYS@23@@Z
?key_type@x509@PE@LIEF@@QEBA?AW4KEY_TYPES@123@XZ
?key_usage@x509@PE@LIEF@@QEBA?AV?$vector@W4KEY_USAGE@x509@PE@LIEF@@V?$allocator@W4KEY_USAGE@x509@PE@LIEF@@@std@@@std@@XZ
?key_value_size@Header@OAT@LIEF@@QEBAIXZ
?key_values@Header@OAT@LIEF@@QEAA?AV?$ref_iterator@V?$vector@U?$pair@W4HEADER_KEYS@OAT@LIEF@@V?$reference_wrapper@V?$basic_string@DU?$char_traits@D@std@@V?$allocator@D@2@@std@@@std@@@std@@V?$allocator@U?$pair@W4HEADER_KEYS@OAT@LIEF@@V?$reference_wrapper@V?$basic_string@DU?$char_traits@D@std@@V?$allocator@D@2@@std@@@std@@@std@@@2@@std@@U?$pair@W4HEADER_KEYS@OAT@LIEF@@V?$reference_wrapper@V?$basic_string@DU?$char_traits@D@std@@V?$allocator@D@2@@std@@@std@@@2@V?$_Vector_iterator@V?$_Vector_val@U?$_Simple_types@U?$pair@W4HEADER_KEYS@OAT@LIEF@@V?$reference_wrapper@V?$basic_string@DU?$char_traits@D@std@@V?$allocator@D@2@@std@@@std@@@std@@@std@@@std@@@2@@3@XZ
?key_values@Header@OAT@LIEF@@QEBA?AV?$ref_iterator@$$CBV?$vector@U?$pair@W4HEADER_KEYS@OAT@LIEF@@V?$basic_string@DU?$char_traits@D@std@@V?$allocator@D@2@@std@@@std@@V?$allocator@U?$pair@W4HEADER_KEYS@OAT@LIEF@@V?$basic_string@DU?$char_traits@D@std@@V?$allocator@D@2@@std@@@std@@@2@@std@@U?$pair@W4HEADER_KEYS@OAT@LIEF@@V?$basic_string@DU?$char_traits@D@std@@V?$allocator@D@2@@std@@@2@V?$_Vector_const_iterator@V?$_Vector_val@U?$_Simple_types@U?$pair@W4HEADER_KEYS@OAT@LIEF@@V?$basic_string@DU?$char_traits@D@std@@V?$allocator@D@2@@std@@@std@@@std@@@std@@@2@@3@XZ
?keys@Header@OAT@LIEF@@QEBA?AV?$vector@W4HEADER_KEYS@OAT@LIEF@@V?$allocator@W4HEADER_KEYS@OAT@LIEF@@@std@@@std@@XZ
?kind@ExportInfo@MachO@LIEF@@QEBA?AW4EXPORT_SYMBOL_KINDS@23@XZ
?lang@LangCodeItem@PE@LIEF@@QEAAXW4RESOURCE_LANGS@23@@Z
?lang@LangCodeItem@PE@LIEF@@QEBA?AW4RESOURCE_LANGS@23@XZ
?lang@ResourceDialog@PE@LIEF@@QEAAXW4RESOURCE_LANGS@23@@Z
?lang@ResourceDialog@PE@LIEF@@QEBA?AW4RESOURCE_LANGS@23@XZ
?lang@ResourceIcon@PE@LIEF@@QEAAXW4RESOURCE_LANGS@23@@Z
?lang@ResourceIcon@PE@LIEF@@QEBA?AW4RESOURCE_LANGS@23@XZ
?lang_from_id@ResourcesManager@PE@LIEF@@SA?AW4RESOURCE_LANGS@23@_K@Z
?langcode_items@ResourceStringFileInfo@PE@LIEF@@QEAAAEAV?$vector@VLangCodeItem@PE@LIEF@@V?$allocator@VLangCodeItem@PE@LIEF@@@std@@@std@@XZ
?langcode_items@ResourceStringFileInfo@PE@LIEF@@QEAAXAEBV?$vector@VLangCodeItem@PE@LIEF@@V?$allocator@VLangCodeItem@PE@LIEF@@@std@@@std@@@Z
?langcode_items@ResourceStringFileInfo@PE@LIEF@@QEBAAEBV?$vector@VLangCodeItem@PE@LIEF@@V?$allocator@VLangCodeItem@PE@LIEF@@@std@@@std@@XZ
?last_offset_section@Binary@ELF@LIEF@@QEBA_KXZ
?last_offset_segment@Binary@ELF@LIEF@@QEBA_KXZ
?lazy_bind@DyldInfo@MachO@LIEF@@QEAAXAEBU?$pair@II@std@@@Z
?lazy_bind@DyldInfo@MachO@LIEF@@QEBAAEBU?$pair@II@std@@XZ
?lazy_bind_opcodes@DyldInfo@MachO@LIEF@@QEAA?AV?$span@E$0?0@tcb@@XZ
?lazy_bind_opcodes@DyldInfo@MachO@LIEF@@QEAAXV?$vector@EV?$allocator@E@std@@@std@@@Z
?lazy_bind_opcodes@DyldInfo@MachO@LIEF@@QEBA?AV?$span@$$CBE$0?0@tcb@@XZ
?lazy_load_dylib@DylibCommand@MachO@LIEF@@SA?AV123@AEBV?$basic_string@DU?$char_traits@D@std@@V?$allocator@D@2@@std@@III@Z
?length@DataCodeEntry@MachO@LIEF@@QEAAXG@Z
?length@DataCodeEntry@MachO@LIEF@@QEBAGXZ
?length@ResourceStringTable@PE@LIEF@@QEBAFXZ
?libraries@Binary@MachO@LIEF@@QEAA?AV?$ref_iterator@AEAV?$vector@PEAVDylibCommand@MachO@LIEF@@V?$allocator@PEAVDylibCommand@MachO@LIEF@@@std@@@std@@PEAVDylibCommand@MachO@LIEF@@V?$_Vector_iterator@V?$_Vector_val@U?$_Simple_types@PEAVDylibCommand@MachO@LIEF@@@std@@@std@@@2@@3@XZ
?libraries@Binary@MachO@LIEF@@QEBA?AV?$ref_iterator@AEBV?$vector@PEAVDylibCommand@MachO@LIEF@@V?$allocator@PEAVDylibCommand@MachO@LIEF@@@std@@@std@@PEAVDylibCommand@MachO@LIEF@@V?$_Vector_const_iterator@V?$_Vector_val@U?$_Simple_types@PEAVDylibCommand@MachO@LIEF@@@std@@@std@@@2@@3@XZ
?library@BindingInfo@MachO@LIEF@@QEAAPEAVDylibCommand@23@XZ
?library@BindingInfo@MachO@LIEF@@QEBAPEBVDylibCommand@23@XZ
?library@Symbol@MachO@LIEF@@AEAAXAEAVDylibCommand@23@@Z
?library@Symbol@MachO@LIEF@@QEAAPEAVDylibCommand@23@XZ
?library@Symbol@MachO@LIEF@@QEBAPEBVDylibCommand@23@XZ
?library_ordinal@BindingInfo@MachO@LIEF@@QEAAXH@Z
?library_ordinal@BindingInfo@MachO@LIEF@@QEBAHXZ
?link@Header@DEX@LIEF@@QEBA?AU?$pair@II@std@@XZ
?link@Section@ELF@LIEF@@QEAAXI@Z
?link@Section@ELF@LIEF@@QEBAIXZ
?link_symbol_version@Parser@ELF@LIEF@@IEAAXXZ
?load_configuration@Binary@PE@LIEF@@QEAAPEAVLoadConfiguration@23@XZ
?load_configuration@Binary@PE@LIEF@@QEBAPEBVLoadConfiguration@23@XZ
?load_dylib@DylibCommand@MachO@LIEF@@SA?AV123@AEBV?$basic_string@DU?$char_traits@D@std@@V?$allocator@D@2@@std@@III@Z
?load_upward_dylib@DylibCommand@MachO@LIEF@@SA?AV123@AEBV?$basic_string@DU?$char_traits@D@std@@V?$allocator@D@2@@std@@III@Z
?loader@Binary@MachO@LIEF@@QEBA?AV?$basic_string@DU?$char_traits@D@std@@V?$allocator@D@2@@std@@XZ
?loader_flags@OptionalHeader@PE@LIEF@@QEAAXI@Z
?loader_flags@OptionalHeader@PE@LIEF@@QEBAIXZ
?local@SymbolVersion@ELF@LIEF@@SA?AV123@XZ
?local_relocation_offset@DynamicSymbolCommand@MachO@LIEF@@QEAAXI@Z
?local_relocation_offset@DynamicSymbolCommand@MachO@LIEF@@QEBAIXZ
?location@DexFile@OAT@LIEF@@QEAAXAEBV?$basic_string@DU?$char_traits@D@std@@V?$allocator@D@2@@std@@@Z
?location@DexFile@OAT@LIEF@@QEBAAEBV?$basic_string@DU?$char_traits@D@std@@V?$allocator@D@2@@std@@XZ
?location@File@DEX@LIEF@@QEAAXAEBV?$basic_string@DU?$char_traits@D@std@@V?$allocator@D@2@@std@@@Z
?location@File@DEX@LIEF@@QEBAAEBV?$basic_string@DU?$char_traits@D@std@@V?$allocator@D@2@@std@@XZ
?lock_prefix_table@LoadConfiguration@PE@LIEF@@QEAAX_K@Z
?lock_prefix_table@LoadConfiguration@PE@LIEF@@QEBA_KXZ
?lookup_table_offset@DexFile@OAT@LIEF@@QEAAXI@Z
?lookup_table_offset@DexFile@OAT@LIEF@@QEBAIXZ
?machine@Header@PE@LIEF@@QEAAXW4MACHINE_TYPES@23@@Z
?machine@Header@PE@LIEF@@QEBA?AW4MACHINE_TYPES@23@XZ
?machine_type@Header@ELF@LIEF@@QEAAXW4ARCH@23@@Z
?machine_type@Header@ELF@LIEF@@QEBA?AW4ARCH@23@XZ
?magic@DosHeader@PE@LIEF@@QEAAXG@Z
?magic@DosHeader@PE@LIEF@@QEBAGXZ
?magic@Header@ART@LIEF@@QEBA?AV?$array@E$03@std@@XZ
?magic@Header@DEX@LIEF@@QEBA?AV?$array@E$07@std@@XZ
?magic@Header@MachO@LIEF@@QEAAXW4MACHO_TYPES@23@@Z
?magic@Header@MachO@LIEF@@QEBA?AW4MACHO_TYPES@23@XZ
?magic@Header@OAT@LIEF@@QEBA?AV?$array@E$03@std@@XZ
?magic@Header@VDEX@LIEF@@QEBA?AV?$array@E$03@std@@XZ
?magic@OptionalHeader@PE@LIEF@@QEAAXW4PE_TYPE@23@@Z
?magic@OptionalHeader@PE@LIEF@@QEBA?AW4PE_TYPE@23@XZ
?main_command@Binary@MachO@LIEF@@QEAAPEAVMainCommand@23@XZ
?main_command@Binary@MachO@LIEF@@QEBAPEBVMainCommand@23@XZ
?major_image_version@OptionalHeader@PE@LIEF@@QEAAXG@Z
?major_image_version@OptionalHeader@PE@LIEF@@QEBAGXZ
?major_linker_version@OptionalHeader@PE@LIEF@@QEAAXE@Z
?major_linker_version@OptionalHeader@PE@LIEF@@QEBAEXZ
?major_operating_system_version@OptionalHeader@PE@LIEF@@QEAAXG@Z
?major_operating_system_version@OptionalHeader@PE@LIEF@@QEBAGXZ
?major_subsystem_version@OptionalHeader@PE@LIEF@@QEAAXG@Z
?major_subsystem_version@OptionalHeader@PE@LIEF@@QEBAGXZ
?major_version@Debug@PE@LIEF@@QEAAXG@Z
?major_version@Debug@PE@LIEF@@QEBAGXZ
?major_version@Export@PE@LIEF@@QEAAXG@Z
?major_version@Export@PE@LIEF@@QEBAGXZ
?major_version@LoadConfiguration@PE@LIEF@@QEAAXG@Z
?major_version@LoadConfiguration@PE@LIEF@@QEBAGXZ
?major_version@ResourceDirectory@PE@LIEF@@QEAAXG@Z
?major_version@ResourceDirectory@PE@LIEF@@QEBAGXZ
?make@AndroidNote@ELF@LIEF@@SA?AV123@AEAVNote@23@@Z
?make@CoreAuxv@ELF@LIEF@@SA?AV123@AEAVNote@23@@Z
?make@CoreFile@ELF@LIEF@@SA?AV123@AEAVNote@23@@Z
?make@CorePrPsInfo@ELF@LIEF@@SA?AV123@AEAVNote@23@@Z
?make@CorePrStatus@ELF@LIEF@@SA?AV123@AEAVNote@23@@Z
?make@CoreSigInfo@ELF@LIEF@@SA?AV123@AEAVNote@23@@Z
?make@NoteAbi@ELF@LIEF@@SA?AV123@AEAVNote@23@@Z
?make_hole@Handler@DataHandler@ELF@LIEF@@QEAA?AV?$result@Uok_t@LIEF@@@leaf@boost@@_K0@Z
?make_space_for_new_section@Binary@PE@LIEF@@AEAAXXZ
?manifest@ResourcesManager@PE@LIEF@@QEAAXAEBV?$basic_string@DU?$char_traits@D@std@@V?$allocator@D@2@@std@@@Z
?manifest@ResourcesManager@PE@LIEF@@QEBA?AV?$basic_string@DU?$char_traits@D@std@@V?$allocator@D@2@@std@@XZ
?map@File@DEX@LIEF@@QEAAAEAVMapList@23@XZ
?map@File@DEX@LIEF@@QEBAAEBVMapList@23@XZ
?map@Header@DEX@LIEF@@QEBAIXZ
?maskwords@GnuHash@ELF@LIEF@@QEBAIXZ
?max_protection@SegmentCommand@MachO@LIEF@@QEAAXI@Z
?max_protection@SegmentCommand@MachO@LIEF@@QEBAIXZ
?maximum_allocation_size@LoadConfiguration@PE@LIEF@@QEAAX_K@Z
?maximum_allocation_size@LoadConfiguration@PE@LIEF@@QEBA_KXZ
?maximum_extra_paragraphs@DosHeader@PE@LIEF@@QEAAXG@Z
?maximum_extra_paragraphs@DosHeader@PE@LIEF@@QEBAGXZ
?method_offsets_index@Class@OAT@LIEF@@QEBAIAEBVMethod@DEX@3@@Z
?method_offsets_index@Class@OAT@LIEF@@QEBAII@Z
?methods@Binary@OAT@LIEF@@QEAA?AV?$ref_iterator@AEAV?$vector@V?$unique_ptr@VMethod@OAT@LIEF@@U?$default_delete@VMethod@OAT@LIEF@@@std@@@std@@V?$allocator@V?$unique_ptr@VMethod@OAT@LIEF@@U?$default_delete@VMethod@OAT@LIEF@@@std@@@std@@@2@@std@@PEAVMethod@OAT@LIEF@@V?$_Vector_iterator@V?$_Vector_val@U?$_Simple_types@V?$unique_ptr@VMethod@OAT@LIEF@@U?$default_delete@VMethod@OAT@LIEF@@@std@@@std@@@std@@@std@@@2@@3@XZ
?methods@Binary@OAT@LIEF@@QEBA?AV?$ref_iterator@AEBV?$vector@V?$unique_ptr@VMethod@OAT@LIEF@@U?$default_delete@VMethod@OAT@LIEF@@@std@@@std@@V?$allocator@V?$unique_ptr@VMethod@OAT@LIEF@@U?$default_delete@VMethod@OAT@LIEF@@@std@@@std@@@2@@std@@PEBVMethod@OAT@LIEF@@V?$_Vector_const_iterator@V?$_Vector_val@U?$_Simple_types@V?$unique_ptr@VMethod@OAT@LIEF@@U?$default_delete@VMethod@OAT@LIEF@@@std@@@std@@@std@@@std@@@2@@3@XZ
?methods@Class@DEX@LIEF@@QEAA?AV?$filter_iterator@AEAV?$vector@PEAVMethod@DEX@LIEF@@V?$allocator@PEAVMethod@DEX@LIEF@@@std@@@std@@PEAVMethod@DEX@LIEF@@V?$_Vector_iterator@V?$_Vector_val@U?$_Simple_types@PEAVMethod@DEX@LIEF@@@std@@@std@@@2@@3@AEBV?$basic_string@DU?$char_traits@D@std@@V?$allocator@D@2@@std@@@Z
?methods@Class@DEX@LIEF@@QEAA?AV?$ref_iterator@AEAV?$vector@PEAVMethod@DEX@LIEF@@V?$allocator@PEAVMethod@DEX@LIEF@@@std@@@std@@PEAVMethod@DEX@LIEF@@V?$_Vector_iterator@V?$_Vector_val@U?$_Simple_types@PEAVMethod@DEX@LIEF@@@std@@@std@@@2@@3@XZ
?methods@Class@DEX@LIEF@@QEBA?AV?$filter_iterator@AEBV?$vector@PEAVMethod@DEX@LIEF@@V?$allocator@PEAVMethod@DEX@LIEF@@@std@@@std@@PEAVMethod@DEX@LIEF@@V?$_Vector_const_iterator@V?$_Vector_val@U?$_Simple_types@PEAVMethod@DEX@LIEF@@@std@@@std@@@2@@3@AEBV?$basic_string@DU?$char_traits@D@std@@V?$allocator@D@2@@std@@@Z
?methods@Class@DEX@LIEF@@QEBA?AV?$ref_iterator@AEBV?$vector@PEAVMethod@DEX@LIEF@@V?$allocator@PEAVMethod@DEX@LIEF@@@std@@@std@@PEAVMethod@DEX@LIEF@@V?$_Vector_const_iterator@V?$_Vector_val@U?$_Simple_types@PEAVMethod@DEX@LIEF@@@std@@@std@@@2@@3@XZ
?methods@Class@OAT@LIEF@@QEAA?AV?$ref_iterator@AEAV?$vector@PEAVMethod@OAT@LIEF@@V?$allocator@PEAVMethod@OAT@LIEF@@@std@@@std@@PEAVMethod@OAT@LIEF@@V?$_Vector_iterator@V?$_Vector_val@U?$_Simple_types@PEAVMethod@OAT@LIEF@@@std@@@std@@@2@@3@XZ
?methods@Class@OAT@LIEF@@QEBA?AV?$ref_iterator@AEBV?$vector@PEAVMethod@OAT@LIEF@@V?$allocator@PEAVMethod@OAT@LIEF@@@std@@@std@@PEAVMethod@OAT@LIEF@@V?$_Vector_const_iterator@V?$_Vector_val@U?$_Simple_types@PEAVMethod@OAT@LIEF@@@std@@@std@@@2@@3@XZ
?methods@File@DEX@LIEF@@QEAA?AV?$ref_iterator@AEAV?$vector@V?$unique_ptr@VMethod@DEX@LIEF@@U?$default_delete@VMethod@DEX@LIEF@@@std@@@std@@V?$allocator@V?$unique_ptr@VMethod@DEX@LIEF@@U?$default_delete@VMethod@DEX@LIEF@@@std@@@std@@@2@@std@@PEAVMethod@DEX@LIEF@@V?$_Vector_iterator@V?$_Vector_val@U?$_Simple_types@V?$unique_ptr@VMethod@DEX@LIEF@@U?$default_delete@VMethod@DEX@LIEF@@@std@@@std@@@std@@@std@@@2@@3@XZ
?methods@File@DEX@LIEF@@QEBA?AV?$ref_iterator@AEBV?$vector@V?$unique_ptr@VMethod@DEX@LIEF@@U?$default_delete@VMethod@DEX@LIEF@@@std@@@std@@V?$allocator@V?$unique_ptr@VMethod@DEX@LIEF@@U?$default_delete@VMethod@DEX@LIEF@@@std@@@std@@@2@@std@@PEBVMethod@DEX@LIEF@@V?$_Vector_const_iterator@V?$_Vector_val@U?$_Simple_types@V?$unique_ptr@VMethod@DEX@LIEF@@U?$default_delete@VMethod@DEX@LIEF@@@std@@@std@@@std@@@std@@@2@@3@XZ
?methods@Header@DEX@LIEF@@QEBA?AU?$pair@II@std@@XZ
?minimum_extra_paragraphs@DosHeader@PE@LIEF@@QEAAXG@Z
?minimum_extra_paragraphs@DosHeader@PE@LIEF@@QEBAGXZ
?minor_image_version@OptionalHeader@PE@LIEF@@QEAAXG@Z
?minor_image_version@OptionalHeader@PE@LIEF@@QEBAGXZ
?minor_linker_version@OptionalHeader@PE@LIEF@@QEAAXE@Z
?minor_linker_version@OptionalHeader@PE@LIEF@@QEBAEXZ
?minor_operating_system_version@OptionalHeader@PE@LIEF@@QEAAXG@Z
?minor_operating_system_version@OptionalHeader@PE@LIEF@@QEBAGXZ
?minor_subsystem_version@OptionalHeader@PE@LIEF@@QEAAXG@Z
?minor_subsystem_version@OptionalHeader@PE@LIEF@@QEBAGXZ
?minor_version@Debug@PE@LIEF@@QEAAXG@Z
?minor_version@Debug@PE@LIEF@@QEBAGXZ
?minor_version@Export@PE@LIEF@@QEAAXG@Z
?minor_version@Export@PE@LIEF@@QEBAGXZ
?minor_version@LoadConfiguration@PE@LIEF@@QEAAXG@Z
?minor_version@LoadConfiguration@PE@LIEF@@QEBAGXZ
?minor_version@ResourceDirectory@PE@LIEF@@QEAAXG@Z
?minor_version@ResourceDirectory@PE@LIEF@@QEBAGXZ
?minos@BuildVersion@MachO@LIEF@@QEAAXV?$array@I$02@std@@@Z
?minos@BuildVersion@MachO@LIEF@@QEBA?AV?$array@I$02@std@@XZ
?mips_flags_list@Header@ELF@LIEF@@QEBA?AV?$set@W4MIPS_EFLAGS@ELF@LIEF@@U?$less@W4MIPS_EFLAGS@ELF@LIEF@@@std@@V?$allocator@W4MIPS_EFLAGS@ELF@LIEF@@@5@@std@@XZ
?modes@Header@LIEF@@QEAAXAEBV?$set@W4MODES@LIEF@@U?$less@W4MODES@LIEF@@@std@@V?$allocator@W4MODES@LIEF@@@4@@std@@@Z
?modes@Header@LIEF@@QEBAAEBV?$set@W4MODES@LIEF@@U?$less@W4MODES@LIEF@@@std@@V?$allocator@W4MODES@LIEF@@@4@@std@@XZ
?module_table_offset@DynamicSymbolCommand@MachO@LIEF@@QEAAXI@Z
?module_table_offset@DynamicSymbolCommand@MachO@LIEF@@QEBAIXZ
?more_info@SpcSpOpusInfo@PE@LIEF@@QEBAAEBV?$basic_string@DU?$char_traits@D@std@@V?$allocator@D@2@@std@@XZ
?name@Binary@LIEF@@QEAAXAEBV?$basic_string@DU?$char_traits@D@std@@V?$allocator@D@2@@std@@@Z
?name@Binary@LIEF@@QEBAAEBV?$basic_string@DU?$char_traits@D@std@@V?$allocator@D@2@@std@@XZ
?name@Class@DEX@LIEF@@QEBA?AV?$basic_string@DU?$char_traits@D@std@@V?$allocator@D@2@@std@@XZ
?name@DelayImport@PE@LIEF@@QEAAXV?$basic_string@DU?$char_traits@D@std@@V?$allocator@D@2@@std@@@Z
?name@DelayImport@PE@LIEF@@QEBAAEBV?$basic_string@DU?$char_traits@D@std@@V?$allocator@D@2@@std@@XZ
?name@DylibCommand@MachO@LIEF@@QEAAXAEBV?$basic_string@DU?$char_traits@D@std@@V?$allocator@D@2@@std@@@Z
?name@DylibCommand@MachO@LIEF@@QEBAAEBV?$basic_string@DU?$char_traits@D@std@@V?$allocator@D@2@@std@@XZ
?name@DylinkerCommand@MachO@LIEF@@QEAAXAEBV?$basic_string@DU?$char_traits@D@std@@V?$allocator@D@2@@std@@@Z
?name@DylinkerCommand@MachO@LIEF@@QEBAAEBV?$basic_string@DU?$char_traits@D@std@@V?$allocator@D@2@@std@@XZ
?name@DynamicEntryLibrary@ELF@LIEF@@QEAAXAEBV?$basic_string@DU?$char_traits@D@std@@V?$allocator@D@2@@std@@@Z
?name@DynamicEntryLibrary@ELF@LIEF@@QEBAAEBV?$basic_string@DU?$char_traits@D@std@@V?$allocator@D@2@@std@@XZ
?name@DynamicEntryRpath@ELF@LIEF@@QEAAXAEBV?$basic_string@DU?$char_traits@D@std@@V?$allocator@D@2@@std@@@Z
?name@DynamicEntryRpath@ELF@LIEF@@QEBAAEBV?$basic_string@DU?$char_traits@D@std@@V?$allocator@D@2@@std@@XZ
?name@DynamicEntryRunPath@ELF@LIEF@@QEAAXAEBV?$basic_string@DU?$char_traits@D@std@@V?$allocator@D@2@@std@@@Z
?name@DynamicEntryRunPath@ELF@LIEF@@QEBAAEBV?$basic_string@DU?$char_traits@D@std@@V?$allocator@D@2@@std@@XZ
?name@DynamicSharedObject@ELF@LIEF@@QEAAXAEBV?$basic_string@DU?$char_traits@D@std@@V?$allocator@D@2@@std@@@Z
?name@DynamicSharedObject@ELF@LIEF@@QEBAAEBV?$basic_string@DU?$char_traits@D@std@@V?$allocator@D@2@@std@@XZ
?name@Export@PE@LIEF@@QEAAXAEBV?$basic_string@DU?$char_traits@D@std@@V?$allocator@D@2@@std@@@Z
?name@Export@PE@LIEF@@QEBAAEBV?$basic_string@DU?$char_traits@D@std@@V?$allocator@D@2@@std@@XZ
?name@Field@DEX@LIEF@@QEBAAEBV?$basic_string@DU?$char_traits@D@std@@V?$allocator@D@2@@std@@XZ
?name@File@DEX@LIEF@@QEAAXAEBV?$basic_string@DU?$char_traits@D@std@@V?$allocator@D@2@@std@@@Z
?name@File@DEX@LIEF@@QEBAAEBV?$basic_string@DU?$char_traits@D@std@@V?$allocator@D@2@@std@@XZ
?name@FilesetCommand@MachO@LIEF@@QEAAXAEBV?$basic_string@DU?$char_traits@D@std@@V?$allocator@D@2@@std@@@Z
?name@FilesetCommand@MachO@LIEF@@QEBAAEBV?$basic_string@DU?$char_traits@D@std@@V?$allocator@D@2@@std@@XZ
?name@Import@PE@LIEF@@QEAAXAEBV?$basic_string@DU?$char_traits@D@std@@V?$allocator@D@2@@std@@@Z
?name@Import@PE@LIEF@@QEBAAEBV?$basic_string@DU?$char_traits@D@std@@V?$allocator@D@2@@std@@XZ
?name@Method@DEX@LIEF@@QEBAAEBV?$basic_string@DU?$char_traits@D@std@@V?$allocator@D@2@@std@@XZ
?name@Method@OAT@LIEF@@QEBA?AV?$basic_string@DU?$char_traits@D@std@@V?$allocator@D@2@@std@@XZ
?name@Note@ELF@LIEF@@QEAAXAEBV?$basic_string@DU?$char_traits@D@std@@V?$allocator@D@2@@std@@@Z
?name@Note@ELF@LIEF@@QEBAAEBV?$basic_string@DU?$char_traits@D@std@@V?$allocator@D@2@@std@@XZ
?name@PogoEntry@PE@LIEF@@QEAAXAEBV?$basic_string@DU?$char_traits@D@std@@V?$allocator@D@2@@std@@@Z
?name@PogoEntry@PE@LIEF@@QEBAAEBV?$basic_string@DU?$char_traits@D@std@@V?$allocator@D@2@@std@@XZ
?name@ResourceNode@PE@LIEF@@QEAAXAEBV?$basic_string@DU?$char_traits@D@std@@V?$allocator@D@2@@std@@@Z
?name@ResourceNode@PE@LIEF@@QEAAXAEBV?$basic_string@_SU?$char_traits@_S@std@@V?$allocator@_S@2@@std@@@Z
?name@ResourceNode@PE@LIEF@@QEBAAEBV?$basic_string@_SU?$char_traits@_S@std@@V?$allocator@_S@2@@std@@XZ
?name@ResourceStringTable@PE@LIEF@@QEBAAEBV?$basic_string@_SU?$char_traits@_S@std@@V?$allocator@_S@2@@std@@XZ
?name@Section@LIEF@@UEAAXAEBV?$basic_string@DU?$char_traits@D@std@@V?$allocator@D@2@@std@@@Z
?name@Section@LIEF@@UEBA?AV?$basic_string@DU?$char_traits@D@std@@V?$allocator@D@2@@std@@XZ
?name@Section@PE@LIEF@@UEAAXAEBV?$basic_string@DU?$char_traits@D@std@@V?$allocator@D@2@@std@@@Z
?name@SegmentCommand@MachO@LIEF@@QEAAXAEBV?$basic_string@DU?$char_traits@D@std@@V?$allocator@D@2@@std@@@Z
?name@SegmentCommand@MachO@LIEF@@QEBAAEBV?$basic_string@DU?$char_traits@D@std@@V?$allocator@D@2@@std@@XZ
?name@Symbol@LIEF@@UEAAAEAV?$basic_string@DU?$char_traits@D@std@@V?$allocator@D@2@@std@@XZ
?name@Symbol@LIEF@@UEAAXAEBV?$basic_string@DU?$char_traits@D@std@@V?$allocator@D@2@@std@@@Z
?name@Symbol@LIEF@@UEBAAEBV?$basic_string@DU?$char_traits@D@std@@V?$allocator@D@2@@std@@XZ
?name@SymbolVersionAux@ELF@LIEF@@QEAAXAEBV?$basic_string@DU?$char_traits@D@std@@V?$allocator@D@2@@std@@@Z
?name@SymbolVersionAux@ELF@LIEF@@QEBAAEBV?$basic_string@DU?$char_traits@D@std@@V?$allocator@D@2@@std@@XZ
?name@SymbolVersionRequirement@ELF@LIEF@@QEAAXAEBV?$basic_string@DU?$char_traits@D@std@@V?$allocator@D@2@@std@@@Z
?name@SymbolVersionRequirement@ELF@LIEF@@QEBAAEBV?$basic_string@DU?$char_traits@D@std@@V?$allocator@D@2@@std@@XZ
?names_table@DelayImport@PE@LIEF@@QEAAXI@Z
?names_table@DelayImport@PE@LIEF@@QEBAIXZ
?nb_buckets@GnuHash@ELF@LIEF@@QEBAIXZ
?nb_classes@Header@DEX@LIEF@@QEBAIXZ
?nb_cmds@Header@MachO@LIEF@@QEAAXI@Z
?nb_cmds@Header@MachO@LIEF@@QEBAIXZ
?nb_dex_files@Header@OAT@LIEF@@QEBAIXZ
?nb_dex_files@Header@VDEX@LIEF@@QEBAIXZ
?nb_external_define_symbols@DynamicSymbolCommand@MachO@LIEF@@QEAAXI@Z
?nb_external_define_symbols@DynamicSymbolCommand@MachO@LIEF@@QEBAIXZ
?nb_external_reference_symbols@DynamicSymbolCommand@MachO@LIEF@@QEAAXI@Z
?nb_external_reference_symbols@DynamicSymbolCommand@MachO@LIEF@@QEBAIXZ
?nb_external_relocations@DynamicSymbolCommand@MachO@LIEF@@QEAAXI@Z
?nb_external_relocations@DynamicSymbolCommand@MachO@LIEF@@QEBAIXZ
?nb_indirect_symbols@DynamicSymbolCommand@MachO@LIEF@@QEAAXI@Z
?nb_indirect_symbols@DynamicSymbolCommand@MachO@LIEF@@QEBAIXZ
?nb_local_relocations@DynamicSymbolCommand@MachO@LIEF@@QEAAXI@Z
?nb_local_relocations@DynamicSymbolCommand@MachO@LIEF@@QEBAIXZ
?nb_local_symbols@DynamicSymbolCommand@MachO@LIEF@@QEAAXI@Z
?nb_local_symbols@DynamicSymbolCommand@MachO@LIEF@@QEBAIXZ
?nb_methods@Header@ART@LIEF@@QEBAIXZ
?nb_methods@Header@DEX@LIEF@@QEBAIXZ
?nb_module_table@DynamicSymbolCommand@MachO@LIEF@@QEAAXI@Z
?nb_module_table@DynamicSymbolCommand@MachO@LIEF@@QEBAIXZ
?nb_sections@Header@ART@LIEF@@QEBAIXZ
?nb_toc@DynamicSymbolCommand@MachO@LIEF@@QEAAXI@Z
?nb_toc@DynamicSymbolCommand@MachO@LIEF@@QEBAIXZ
?nb_undefined_symbols@DynamicSymbolCommand@MachO@LIEF@@QEAAXI@Z
?nb_undefined_symbols@DynamicSymbolCommand@MachO@LIEF@@QEBAIXZ
?nbucket@SysvHash@ELF@LIEF@@QEBAIXZ
?nchain@SysvHash@ELF@LIEF@@QEAAXI@Z
?nchain@SysvHash@ELF@LIEF@@QEBAIXZ
?ndk_build_number@AndroidNote@ELF@LIEF@@QEAAXAEBV?$basic_string@DU?$char_traits@D@std@@V?$allocator@D@2@@std@@@Z
?ndk_build_number@AndroidNote@ELF@LIEF@@QEBA?AV?$basic_string@DU?$char_traits@D@std@@V?$allocator@D@2@@std@@XZ
?ndk_build_number_offset@AndroidNote@ELF@LIEF@@2_KB
?ndk_build_number_size@AndroidNote@ELF@LIEF@@2_KB
?ndk_version@AndroidNote@ELF@LIEF@@QEAAXAEBV?$basic_string@DU?$char_traits@D@std@@V?$allocator@D@2@@std@@@Z
?ndk_version@AndroidNote@ELF@LIEF@@QEBA?AV?$basic_string@DU?$char_traits@D@std@@V?$allocator@D@2@@std@@XZ
?ndk_version_offset@AndroidNote@ELF@LIEF@@2_KB
?ndk_version_size@AndroidNote@ELF@LIEF@@2_KB
?ndx@SymbolVersionDefinition@ELF@LIEF@@QEBAGXZ
?next_virtual_address@Binary@ELF@LIEF@@QEBA_KXZ
?node_offset@ExportInfo@MachO@LIEF@@QEBA_KXZ
?notes@Binary@ELF@LIEF@@QEAA?AV?$ref_iterator@AEAV?$vector@V?$unique_ptr@VNote@ELF@LIEF@@U?$default_delete@VNote@ELF@LIEF@@@std@@@std@@V?$allocator@V?$unique_ptr@VNote@ELF@LIEF@@U?$default_delete@VNote@ELF@LIEF@@@std@@@std@@@2@@std@@PEAVNote@ELF@LIEF@@V?$_Vector_iterator@V?$_Vector_val@U?$_Simple_types@V?$unique_ptr@VNote@ELF@LIEF@@U?$default_delete@VNote@ELF@LIEF@@@std@@@std@@@std@@@std@@@2@@3@XZ
?notes@Binary@ELF@LIEF@@QEBA?AV?$ref_iterator@AEBV?$vector@V?$unique_ptr@VNote@ELF@LIEF@@U?$default_delete@VNote@ELF@LIEF@@@std@@@std@@V?$allocator@V?$unique_ptr@VNote@ELF@LIEF@@U?$default_delete@VNote@ELF@LIEF@@@std@@@std@@@2@@std@@PEBVNote@ELF@LIEF@@V?$_Vector_const_iterator@V?$_Vector_val@U?$_Simple_types@V?$unique_ptr@VNote@ELF@LIEF@@U?$default_delete@VNote@ELF@LIEF@@@std@@@std@@@std@@@std@@@2@@3@XZ
?npos@Section@LIEF@@2_KB
?number@PKCS9AtSequenceNumber@PE@LIEF@@QEBAIXZ
?numberof_aux_symbols@Symbol@PE@LIEF@@QEBAEXZ
?numberof_id_entries@ResourceDirectory@PE@LIEF@@QEAAXG@Z
?numberof_id_entries@ResourceDirectory@PE@LIEF@@QEBAGXZ
?numberof_line_numbers@Section@PE@LIEF@@QEAAXG@Z
?numberof_line_numbers@Section@PE@LIEF@@QEBAGXZ
?numberof_name_entries@ResourceDirectory@PE@LIEF@@QEAAXG@Z
?numberof_name_entries@ResourceDirectory@PE@LIEF@@QEBAGXZ
?numberof_relocation@DosHeader@PE@LIEF@@QEAAXG@Z
?numberof_relocation@DosHeader@PE@LIEF@@QEBAGXZ
?numberof_relocations@Section@MachO@LIEF@@QEAAXI@Z
?numberof_relocations@Section@MachO@LIEF@@QEBAIXZ
?numberof_relocations@Section@PE@LIEF@@QEAAXG@Z
?numberof_relocations@Section@PE@LIEF@@QEBAGXZ
?numberof_rva_and_size@OptionalHeader@PE@LIEF@@QEAAXI@Z
?numberof_rva_and_size@OptionalHeader@PE@LIEF@@QEBAIXZ
?numberof_sections@Header@ELF@LIEF@@QEAAXI@Z
?numberof_sections@Header@ELF@LIEF@@QEBAIXZ
?numberof_sections@Header@PE@LIEF@@QEAAXG@Z
?numberof_sections@Header@PE@LIEF@@QEBAGXZ
?numberof_sections@SegmentCommand@MachO@LIEF@@QEAAXI@Z
?numberof_sections@SegmentCommand@MachO@LIEF@@QEBAIXZ
?numberof_sections@Symbol@MachO@LIEF@@QEAAXE@Z
?numberof_sections@Symbol@MachO@LIEF@@QEBAEXZ
?numberof_segments@Header@ELF@LIEF@@QEAAXI@Z
?numberof_segments@Header@ELF@LIEF@@QEBAIXZ
?numberof_symbols@Header@PE@LIEF@@QEAAXI@Z
?numberof_symbols@Header@PE@LIEF@@QEBAIXZ
?numberof_symbols@SymbolCommand@MachO@LIEF@@QEAAXI@Z
?numberof_symbols@SymbolCommand@MachO@LIEF@@QEBAIXZ
?oat_binary@Parser@OAT@LIEF@@IEAAAEAVBinary@23@XZ
?oat_checksum@Header@ART@LIEF@@QEBAIXZ
?oat_class@Method@OAT@LIEF@@QEAAPEAVClass@23@XZ
?oat_class@Method@OAT@LIEF@@QEBAPEBVClass@23@XZ
?oat_data_begin@Header@ART@LIEF@@QEBAIXZ
?oat_data_end@Header@ART@LIEF@@QEBAIXZ
?oat_dex_files@Binary@OAT@LIEF@@QEAA?AV?$ref_iterator@AEAV?$vector@V?$unique_ptr@VDexFile@OAT@LIEF@@U?$default_delete@VDexFile@OAT@LIEF@@@std@@@std@@V?$allocator@V?$unique_ptr@VDexFile@OAT@LIEF@@U?$default_delete@VDexFile@OAT@LIEF@@@std@@@std@@@2@@std@@PEAVDexFile@OAT@LIEF@@V?$_Vector_iterator@V?$_Vector_val@U?$_Simple_types@V?$unique_ptr@VDexFile@OAT@LIEF@@U?$default_delete@VDexFile@OAT@LIEF@@@std@@@std@@@std@@@std@@@2@@3@XZ
?oat_dex_files@Binary@OAT@LIEF@@QEBA?AV?$ref_iterator@AEBV?$vector@V?$unique_ptr@VDexFile@OAT@LIEF@@U?$default_delete@VDexFile@OAT@LIEF@@@std@@@std@@V?$allocator@V?$unique_ptr@VDexFile@OAT@LIEF@@U?$default_delete@VDexFile@OAT@LIEF@@@std@@@std@@@2@@std@@PEBVDexFile@OAT@LIEF@@V?$_Vector_const_iterator@V?$_Vector_val@U?$_Simple_types@V?$unique_ptr@VDexFile@OAT@LIEF@@U?$default_delete@VDexFile@OAT@LIEF@@@std@@@std@@@std@@@std@@@2@@3@XZ
?oat_dex_files_offset@Header@OAT@LIEF@@QEBAIXZ
?oat_file_begin@Header@ART@LIEF@@QEBAIXZ
?oat_file_end@Header@ART@LIEF@@QEBAIXZ
?object_file_version@Header@ELF@LIEF@@QEAAXW4VERSION@23@@Z
?object_file_version@Header@ELF@LIEF@@QEBA?AW4VERSION@23@XZ
?object_relocations@Binary@ELF@LIEF@@QEAA?AV?$filter_iterator@AEAV?$vector@V?$unique_ptr@VRelocation@ELF@LIEF@@U?$default_delete@VRelocation@ELF@LIEF@@@std@@@std@@V?$allocator@V?$unique_ptr@VRelocation@ELF@LIEF@@U?$default_delete@VRelocation@ELF@LIEF@@@std@@@std@@@2@@std@@PEAVRelocation@ELF@LIEF@@V?$_Vector_iterator@V?$_Vector_val@U?$_Simple_types@V?$unique_ptr@VRelocation@ELF@LIEF@@U?$default_delete@VRelocation@ELF@LIEF@@@std@@@std@@@std@@@std@@@2@@3@XZ
?object_relocations@Binary@ELF@LIEF@@QEBA?AV?$filter_iterator@AEBV?$vector@V?$unique_ptr@VRelocation@ELF@LIEF@@U?$default_delete@VRelocation@ELF@LIEF@@@std@@@std@@V?$allocator@V?$unique_ptr@VRelocation@ELF@LIEF@@U?$default_delete@VRelocation@ELF@LIEF@@@std@@@std@@@2@@std@@PEBVRelocation@ELF@LIEF@@V?$_Vector_const_iterator@V?$_Vector_val@U?$_Simple_types@V?$unique_ptr@VRelocation@ELF@LIEF@@U?$default_delete@VRelocation@ELF@LIEF@@@std@@@std@@@std@@@std@@@2@@3@XZ
?object_type@Header@LIEF@@QEAAXW4OBJECT_TYPES@2@@Z
?object_type@Header@LIEF@@QEBA?AW4OBJECT_TYPES@2@XZ
?oem_id@DosHeader@PE@LIEF@@QEAAXG@Z
?oem_id@DosHeader@PE@LIEF@@QEBAGXZ
?oem_info@DosHeader@PE@LIEF@@QEAAXG@Z
?oem_info@DosHeader@PE@LIEF@@QEBAGXZ
?off_ranges@Binary@MachO@LIEF@@QEBA?AU?$pair@_K_K@std@@XZ
?offset@DataCodeEntry@MachO@LIEF@@QEAAXI@Z
?offset@DataCodeEntry@MachO@LIEF@@QEBAIXZ
?offset@MapItem@DEX@LIEF@@QEBAIXZ
?offset@Node@DataHandler@ELF@LIEF@@QEAAX_K@Z
?offset@Node@DataHandler@ELF@LIEF@@QEBA_KXZ
?offset@ResourceData@PE@LIEF@@QEBAIXZ
?offset@Section@ELF@LIEF@@UEAAX_K@Z
?offset@Section@ELF@LIEF@@UEBA_KXZ
?offset@Section@LIEF@@UEAAX_K@Z
?offset@Section@LIEF@@UEBA_KXZ
?offset_to_virtual_address@Binary@ELF@LIEF@@UEBA_K_K0@Z
?offset_to_virtual_address@Binary@MachO@LIEF@@UEBA_K_K0@Z
?offset_to_virtual_address@Binary@PE@LIEF@@UEBA_K_K0@Z
?oid@ContentType@PE@LIEF@@QEBAAEBV?$basic_string@DU?$char_traits@D@std@@V?$allocator@D@2@@std@@XZ
?oid@GenericType@PE@LIEF@@QEBAAEBV?$basic_string@DU?$char_traits@D@std@@V?$allocator@D@2@@std@@XZ
?oid@MsSpcStatementType@PE@LIEF@@QEBAAEBV?$basic_string@DU?$char_traits@D@std@@V?$allocator@D@2@@std@@XZ
?oid_to_string@PE@LIEF@@YAPEBDAEBV?$basic_string@DU?$char_traits@D@std@@V?$allocator@D@2@@std@@@Z
?optional_header@Binary@PE@LIEF@@QEAAAEAVOptionalHeader@23@XZ
?optional_header@Binary@PE@LIEF@@QEBAAEBVOptionalHeader@23@XZ
?ordinal@DelayImportEntry@PE@LIEF@@QEBAGXZ
?ordinal@ExportEntry@PE@LIEF@@QEAAXG@Z
?ordinal@ExportEntry@PE@LIEF@@QEBAGXZ
?ordinal@ImportEntry@PE@LIEF@@QEBAGXZ
?ordinal_base@Export@PE@LIEF@@QEAAXI@Z
?ordinal_base@Export@PE@LIEF@@QEBAIXZ
?origin@RelocationDyld@MachO@LIEF@@UEBA?AW4RELOCATION_ORIGINS@23@XZ
?origin@RelocationObject@MachO@LIEF@@UEBA?AW4RELOCATION_ORIGINS@23@XZ
?origin@Symbol@MachO@LIEF@@QEBA?AW4SYMBOL_ORIGINS@23@XZ
?original_offset@BindingInfo@MachO@LIEF@@QEBA_KXZ
?original_size@Binary@LIEF@@QEAAX_K@Z
?original_size@Binary@LIEF@@QEBA_KXZ
?original_size@Section@ELF@LIEF@@QEBA_KXZ
?other@ExportInfo@MachO@LIEF@@QEBA_KXZ
?other@Symbol@ELF@LIEF@@QEAAXE@Z
?other@Symbol@ELF@LIEF@@QEBAEXZ
?other@SymbolVersionAuxRequirement@ELF@LIEF@@QEAAXG@Z
?other@SymbolVersionAuxRequirement@ELF@LIEF@@QEBAGXZ
?overlay@Binary@ELF@LIEF@@QEAAXV?$vector@EV?$allocator@E@std@@@std@@@Z
?overlay@Binary@ELF@LIEF@@QEBAAEBV?$vector@EV?$allocator@E@std@@@std@@XZ
?overlay@Binary@PE@LIEF@@QEAAAEAV?$vector@EV?$allocator@E@std@@@std@@XZ
?overlay@Binary@PE@LIEF@@QEBAAEBV?$vector@EV?$allocator@E@std@@@std@@XZ
?overlay_number@DosHeader@PE@LIEF@@QEAAXG@Z
?overlay_number@DosHeader@PE@LIEF@@QEBAGXZ
?package_name@Class@DEX@LIEF@@QEBA?AV?$basic_string@DU?$char_traits@D@std@@V?$allocator@D@2@@std@@XZ
?package_normalized@Class@DEX@LIEF@@SA?AV?$basic_string@DU?$char_traits@D@std@@V?$allocator@D@2@@std@@AEBV45@@Z
?padding@ResourceAccelerator@PE@LIEF@@QEBAFXZ
?padding@Section@PE@LIEF@@QEBAAEBV?$vector@EV?$allocator@E@std@@@std@@XZ
?parameters_type@Prototype@DEX@LIEF@@QEAA?AV?$ref_iterator@V?$vector@PEAVType@DEX@LIEF@@V?$allocator@PEAVType@DEX@LIEF@@@std@@@std@@PEAVType@DEX@LIEF@@V?$_Vector_iterator@V?$_Vector_val@U?$_Simple_types@PEAVType@DEX@LIEF@@@std@@@std@@@2@@3@XZ
?parameters_type@Prototype@DEX@LIEF@@QEBA?AV?$ref_iterator@$$CBV?$vector@PEAVType@DEX@LIEF@@V?$allocator@PEAVType@DEX@LIEF@@@std@@@std@@PEAVType@DEX@LIEF@@V?$_Vector_const_iterator@V?$_Vector_val@U?$_Simple_types@PEAVType@DEX@LIEF@@@std@@@std@@@2@@3@XZ
?parent@Class@DEX@LIEF@@QEAAPEAV123@XZ
?parent@Class@DEX@LIEF@@QEBAPEBV123@XZ
?parse@AndroidNote@ELF@LIEF@@MEAAXXZ
?parse@BinaryParser@MachO@LIEF@@SA?AV?$unique_ptr@VBinary@MachO@LIEF@@U?$default_delete@VBinary@MachO@LIEF@@@std@@@std@@AEBV?$basic_string@DU?$char_traits@D@std@@V?$allocator@D@2@@5@@Z
?parse@BinaryParser@MachO@LIEF@@SA?AV?$unique_ptr@VBinary@MachO@LIEF@@U?$default_delete@VBinary@MachO@LIEF@@@std@@@std@@AEBV?$basic_string@DU?$char_traits@D@std@@V?$allocator@D@2@@5@AEBUParserConfig@23@@Z
?parse@BinaryParser@MachO@LIEF@@SA?AV?$unique_ptr@VBinary@MachO@LIEF@@U?$default_delete@VBinary@MachO@LIEF@@@std@@@std@@AEBV?$vector@EV?$allocator@E@std@@@5@AEBUParserConfig@23@@Z
?parse@BinaryParser@MachO@LIEF@@SA?AV?$unique_ptr@VBinary@MachO@LIEF@@U?$default_delete@VBinary@MachO@LIEF@@@std@@@std@@AEBV?$vector@EV?$allocator@E@std@@@5@_KAEBUParserConfig@23@@Z
?parse@BinaryParser@MachO@LIEF@@SA?AV?$unique_ptr@VBinary@MachO@LIEF@@U?$default_delete@VBinary@MachO@LIEF@@@std@@@std@@V?$unique_ptr@VBinaryStream@LIEF@@U?$default_delete@VBinaryStream@LIEF@@@std@@@5@_KAEBUParserConfig@23@@Z
?parse@CoreAuxv@ELF@LIEF@@MEAAXXZ
?parse@CoreFile@ELF@LIEF@@MEAAXXZ
?parse@CorePrPsInfo@ELF@LIEF@@MEAAXXZ
?parse@CorePrStatus@ELF@LIEF@@MEAAXXZ
?parse@CoreSigInfo@ELF@LIEF@@MEAAXXZ
?parse@NoteAbi@ELF@LIEF@@MEAAXXZ
?parse@NoteDetails@ELF@LIEF@@MEAAXXZ
?parse@Parser@ART@LIEF@@SA?AV?$unique_ptr@VFile@ART@LIEF@@U?$default_delete@VFile@ART@LIEF@@@std@@@std@@AEBV?$basic_string@DU?$char_traits@D@std@@V?$allocator@D@2@@5@@Z
?parse@Parser@ART@LIEF@@SA?AV?$unique_ptr@VFile@ART@LIEF@@U?$default_delete@VFile@ART@LIEF@@@std@@@std@@V?$vector@EV?$allocator@E@std@@@5@AEBV?$basic_string@DU?$char_traits@D@std@@V?$allocator@D@2@@5@@Z
?parse@Parser@DEX@LIEF@@SA?AV?$unique_ptr@VFile@DEX@LIEF@@U?$default_delete@VFile@DEX@LIEF@@@std@@@std@@AEBV?$basic_string@DU?$char_traits@D@std@@V?$allocator@D@2@@5@@Z
?parse@Parser@DEX@LIEF@@SA?AV?$unique_ptr@VFile@DEX@LIEF@@U?$default_delete@VFile@DEX@LIEF@@@std@@@std@@V?$vector@EV?$allocator@E@std@@@5@AEBV?$basic_string@DU?$char_traits@D@std@@V?$allocator@D@2@@5@@Z
?parse@Parser@ELF@LIEF@@SA?AV?$unique_ptr@VBinary@ELF@LIEF@@U?$default_delete@VBinary@ELF@LIEF@@@std@@@std@@AEBV?$basic_string@DU?$char_traits@D@std@@V?$allocator@D@2@@5@W4DYNSYM_COUNT_METHODS@23@@Z
?parse@Parser@ELF@LIEF@@SA?AV?$unique_ptr@VBinary@ELF@LIEF@@U?$default_delete@VBinary@ELF@LIEF@@@std@@@std@@AEBV?$vector@EV?$allocator@E@std@@@5@AEBV?$basic_string@DU?$char_traits@D@std@@V?$allocator@D@2@@5@W4DYNSYM_COUNT_METHODS@23@@Z
?parse@Parser@LIEF@@SA?AV?$unique_ptr@VBinary@LIEF@@U?$default_delete@VBinary@LIEF@@@std@@@std@@AEBV?$basic_string@DU?$char_traits@D@std@@V?$allocator@D@2@@4@@Z
?parse@Parser@LIEF@@SA?AV?$unique_ptr@VBinary@LIEF@@U?$default_delete@VBinary@LIEF@@@std@@@std@@AEBV?$vector@EV?$allocator@E@std@@@4@AEBV?$basic_string@DU?$char_traits@D@std@@V?$allocator@D@2@@4@@Z
?parse@Parser@MachO@LIEF@@SA?AV?$unique_ptr@VFatBinary@MachO@LIEF@@U?$default_delete@VFatBinary@MachO@LIEF@@@std@@@std@@AEBV?$basic_string@DU?$char_traits@D@std@@V?$allocator@D@2@@5@AEBUParserConfig@23@@Z
?parse@Parser@MachO@LIEF@@SA?AV?$unique_ptr@VFatBinary@MachO@LIEF@@U?$default_delete@VFatBinary@MachO@LIEF@@@std@@@std@@AEBV?$vector@EV?$allocator@E@std@@@5@AEBV?$basic_string@DU?$char_traits@D@std@@V?$allocator@D@2@@5@AEBUParserConfig@23@@Z
?parse@Parser@OAT@LIEF@@SA?AV?$unique_ptr@VBinary@OAT@LIEF@@U?$default_delete@VBinary@OAT@LIEF@@@std@@@std@@AEBV?$basic_string@DU?$char_traits@D@std@@V?$allocator@D@2@@5@0@Z
?parse@Parser@OAT@LIEF@@SA?AV?$unique_ptr@VBinary@OAT@LIEF@@U?$default_delete@VBinary@OAT@LIEF@@@std@@@std@@AEBV?$basic_string@DU?$char_traits@D@std@@V?$allocator@D@2@@5@@Z
?parse@Parser@OAT@LIEF@@SA?AV?$unique_ptr@VBinary@OAT@LIEF@@U?$default_delete@VBinary@OAT@LIEF@@@std@@@std@@V?$vector@EV?$allocator@E@std@@@5@AEBV?$basic_string@DU?$char_traits@D@std@@V?$allocator@D@2@@5@@Z
?parse@Parser@PE@LIEF@@SA?AV?$unique_ptr@VBinary@PE@LIEF@@U?$default_delete@VBinary@PE@LIEF@@@std@@@std@@AEBV?$basic_string@DU?$char_traits@D@std@@V?$allocator@D@2@@5@@Z
?parse@Parser@PE@LIEF@@SA?AV?$unique_ptr@VBinary@PE@LIEF@@U?$default_delete@VBinary@PE@LIEF@@@std@@@std@@V?$vector@EV?$allocator@E@std@@@5@AEBV?$basic_string@DU?$char_traits@D@std@@V?$allocator@D@2@@5@@Z
?parse@Parser@VDEX@LIEF@@SA?AV?$unique_ptr@VFile@VDEX@LIEF@@U?$default_delete@VFile@VDEX@LIEF@@@std@@@std@@AEBV?$basic_string@DU?$char_traits@D@std@@V?$allocator@D@2@@5@@Z
?parse@Parser@VDEX@LIEF@@SA?AV?$unique_ptr@VFile@VDEX@LIEF@@U?$default_delete@VFile@VDEX@LIEF@@@std@@@std@@AEBV?$vector@EV?$allocator@E@std@@@5@AEBV?$basic_string@DU?$char_traits@D@std@@V?$allocator@D@2@@5@@Z
?parse@SignatureParser@PE@LIEF@@SA?AV?$result@VSignature@PE@LIEF@@@leaf@boost@@AEBV?$basic_string@DU?$char_traits@D@std@@V?$allocator@D@2@@std@@@Z
?parse@SignatureParser@PE@LIEF@@SA?AV?$result@VSignature@PE@LIEF@@@leaf@boost@@V?$vector@EV?$allocator@E@std@@@std@@_N@Z
?parse@Type@DEX@LIEF@@AEAAXAEBV?$basic_string@DU?$char_traits@D@std@@V?$allocator@D@2@@std@@@Z
?parse@x509@PE@LIEF@@SA?AV?$vector@Vx509@PE@LIEF@@V?$allocator@Vx509@PE@LIEF@@@std@@@std@@AEBV?$basic_string@DU?$char_traits@D@std@@V?$allocator@D@2@@5@@Z
?parse@x509@PE@LIEF@@SA?AV?$vector@Vx509@PE@LIEF@@V?$allocator@Vx509@PE@LIEF@@@std@@@std@@AEBV?$vector@EV?$allocator@E@std@@@5@@Z
?parse_attributes@SignatureParser@PE@LIEF@@AEAA?AV?$result@V?$vector@V?$unique_ptr@VAttribute@PE@LIEF@@U?$default_delete@VAttribute@PE@LIEF@@@std@@@std@@V?$allocator@V?$unique_ptr@VAttribute@PE@LIEF@@U?$default_delete@VAttribute@PE@LIEF@@@std@@@std@@@2@@std@@@leaf@boost@@AEAVVectorStream@3@@Z
?parse_certificates@SignatureParser@PE@LIEF@@CA?AV?$result@V?$vector@Vx509@PE@LIEF@@V?$allocator@Vx509@PE@LIEF@@@std@@@std@@@leaf@boost@@AEAVVectorStream@3@@Z
?parse_content_info@SignatureParser@PE@LIEF@@CA?AV?$result@VContentInfo@PE@LIEF@@@leaf@boost@@AEAVVectorStream@3@AEAUrange_t@123@@Z
?parse_content_type@SignatureParser@PE@LIEF@@CA?AV?$result@V?$unique_ptr@VAttribute@PE@LIEF@@U?$default_delete@VAttribute@PE@LIEF@@@std@@@std@@@leaf@boost@@AEAVVectorStream@3@@Z
?parse_debug@Parser@PE@LIEF@@AEAA?AV?$result@Uok_t@LIEF@@@leaf@boost@@XZ
?parse_debug_code_view@Parser@PE@LIEF@@AEAA?AV?$result@Uok_t@LIEF@@@leaf@boost@@AEAVDebug@23@@Z
?parse_debug_pogo@Parser@PE@LIEF@@AEAA?AV?$result@Uok_t@LIEF@@@leaf@boost@@AEAVDebug@23@@Z
?parse_dos_stub@Parser@PE@LIEF@@AEAA?AV?$result@Uok_t@LIEF@@@leaf@boost@@XZ
?parse_dyldinfo_export@BinaryParser@MachO@LIEF@@AEAA?AV?$result@Uok_t@LIEF@@@leaf@boost@@XZ
?parse_export_trie@BinaryParser@MachO@LIEF@@AEAA?AV?$result@Uok_t@LIEF@@@leaf@boost@@_K0AEBV?$basic_string@DU?$char_traits@D@std@@V?$allocator@D@2@@std@@@Z
?parse_exports@Parser@PE@LIEF@@AEAA?AV?$result@Uok_t@LIEF@@@leaf@boost@@XZ
?parse_ms_counter_sign@SignatureParser@PE@LIEF@@CA?AV?$result@X@leaf@boost@@AEAVVectorStream@3@@Z
?parse_ms_spc_nested_signature@SignatureParser@PE@LIEF@@CA?AV?$result@VSignature@PE@LIEF@@@leaf@boost@@AEAVVectorStream@3@@Z
?parse_ms_spc_statement_type@SignatureParser@PE@LIEF@@AEAA?AV?$result@V?$basic_string@DU?$char_traits@D@std@@V?$allocator@D@2@@std@@@leaf@boost@@AEAVVectorStream@3@@Z
?parse_notes@Parser@ELF@LIEF@@IEAA?AV?$result@Uok_t@LIEF@@@leaf@boost@@_K0@Z
?parse_overlay@Parser@ELF@LIEF@@IEAA?AV?$result@Uok_t@LIEF@@@leaf@boost@@XZ
?parse_overlay@Parser@PE@LIEF@@AEAA?AV?$result@Uok_t@LIEF@@@leaf@boost@@XZ
?parse_pkcs9_at_sequence_number@SignatureParser@PE@LIEF@@CA?AV?$result@H@leaf@boost@@AEAVVectorStream@3@@Z
?parse_pkcs9_counter_sign@SignatureParser@PE@LIEF@@AEAA?AV?$result@V?$vector@VSignerInfo@PE@LIEF@@V?$allocator@VSignerInfo@PE@LIEF@@@std@@@std@@@leaf@boost@@AEAVVectorStream@3@@Z
?parse_pkcs9_message_digest@SignatureParser@PE@LIEF@@CA?AV?$result@V?$vector@EV?$allocator@E@std@@@std@@@leaf@boost@@AEAVVectorStream@3@@Z
?parse_pkcs9_signing_time@SignatureParser@PE@LIEF@@CA?AV?$result@V?$array@H$05@std@@@leaf@boost@@AEAVVectorStream@3@@Z
?parse_relocations@Parser@PE@LIEF@@AEAA?AV?$result@Uok_t@LIEF@@@leaf@boost@@XZ
?parse_resource_node@Parser@PE@LIEF@@AEAA?AV?$unique_ptr@VResourceNode@PE@LIEF@@U?$default_delete@VResourceNode@PE@LIEF@@@std@@@std@@AEBUpe_resource_directory_table@details@23@III@Z
?parse_resources@Parser@PE@LIEF@@AEAA?AV?$result@Uok_t@LIEF@@@leaf@boost@@XZ
?parse_rich_header@Parser@PE@LIEF@@AEAA?AV?$result@Uok_t@LIEF@@@leaf@boost@@XZ
?parse_sections@Parser@PE@LIEF@@AEAA?AV?$result@Uok_t@LIEF@@@leaf@boost@@XZ
?parse_signature@Parser@PE@LIEF@@AEAA?AV?$result@Uok_t@LIEF@@@leaf@boost@@XZ
?parse_signature@SignatureParser@PE@LIEF@@AEAA?AV?$result@VSignature@PE@LIEF@@@leaf@boost@@XZ
?parse_signer_infos@SignatureParser@PE@LIEF@@AEAA?AV?$result@V?$vector@VSignerInfo@PE@LIEF@@V?$allocator@VSignerInfo@PE@LIEF@@@std@@@std@@@leaf@boost@@AEAVVectorStream@3@@Z
?parse_spc_link@SignatureParser@PE@LIEF@@CA?AV?$result@V?$basic_string@DU?$char_traits@D@std@@V?$allocator@D@2@@std@@@leaf@boost@@AEAVVectorStream@3@@Z
?parse_spc_pe_image_data@SignatureParser@PE@LIEF@@CA?AV?$result@USpcPeImageData@SignatureParser@PE@LIEF@@@leaf@boost@@AEAVVectorStream@3@@Z
?parse_spc_sp_opus_info@SignatureParser@PE@LIEF@@AEAA?AV?$result@USpcSpOpusInfo@SignatureParser@PE@LIEF@@@leaf@boost@@AEAVVectorStream@3@@Z
?parse_spc_string@SignatureParser@PE@LIEF@@CA?AV?$result@V?$basic_string@DU?$char_traits@D@std@@V?$allocator@D@2@@std@@@leaf@boost@@AEAVVectorStream@3@@Z
?parse_string_table@Parser@PE@LIEF@@AEAA?AV?$result@Uok_t@LIEF@@@leaf@boost@@XZ
?parse_symbol_sysv_hash@Parser@ELF@LIEF@@IEAA?AV?$result@Uok_t@LIEF@@@leaf@boost@@_K@Z
?parse_symbol_version@Parser@ELF@LIEF@@IEAA?AV?$result@Uok_t@LIEF@@@leaf@boost@@_K@Z
?parse_symbols@Parser@PE@LIEF@@AEAA?AV?$result@Uok_t@LIEF@@@leaf@boost@@XZ
?patch_address@Binary@ELF@LIEF@@UEAAX_K00W4VA_TYPES@13@@Z
?patch_address@Binary@ELF@LIEF@@UEAAX_KAEBV?$vector@EV?$allocator@E@std@@@std@@W4VA_TYPES@13@@Z
?patch_address@Binary@MachO@LIEF@@UEAAX_K00W4VA_TYPES@13@@Z
?patch_address@Binary@MachO@LIEF@@UEAAX_KAEBV?$vector@EV?$allocator@E@std@@@std@@W4VA_TYPES@13@@Z
?patch_address@Binary@PE@LIEF@@UEAAX_K00W4VA_TYPES@13@@Z
?patch_address@Binary@PE@LIEF@@UEAAX_KAEBV?$vector@EV?$allocator@E@std@@@std@@W4VA_TYPES@13@@Z
?patch_delta@Header@ART@LIEF@@QEBAHXZ
?patch_imports@Builder@PE@LIEF@@QEAAAEAV123@_N@Z
?patch_pltgot@Binary@ELF@LIEF@@QEAAXAEBV?$basic_string@DU?$char_traits@D@std@@V?$allocator@D@2@@std@@_K@Z
?patch_pltgot@Binary@ELF@LIEF@@QEAAXAEBVSymbol@23@_K@Z
?path@RPathCommand@MachO@LIEF@@QEAAXAEBV?$basic_string@DU?$char_traits@D@std@@V?$allocator@D@2@@std@@@Z
?path@RPathCommand@MachO@LIEF@@QEBAAEBV?$basic_string@DU?$char_traits@D@std@@V?$allocator@D@2@@std@@XZ
?paths@DynamicEntryRpath@ELF@LIEF@@QEAAXAEBV?$vector@V?$basic_string@DU?$char_traits@D@std@@V?$allocator@D@2@@std@@V?$allocator@V?$basic_string@DU?$char_traits@D@std@@V?$allocator@D@2@@std@@@2@@std@@@Z
?paths@DynamicEntryRpath@ELF@LIEF@@QEBA?AV?$vector@V?$basic_string@DU?$char_traits@D@std@@V?$allocator@D@2@@std@@V?$allocator@V?$basic_string@DU?$char_traits@D@std@@V?$allocator@D@2@@std@@@2@@std@@XZ
?paths@DynamicEntryRunPath@ELF@LIEF@@QEAAXAEBV?$vector@V?$basic_string@DU?$char_traits@D@std@@V?$allocator@D@2@@std@@V?$allocator@V?$basic_string@DU?$char_traits@D@std@@V?$allocator@D@2@@std@@@2@@std@@@Z
?paths@DynamicEntryRunPath@ELF@LIEF@@QEBA?AV?$vector@V?$basic_string@DU?$char_traits@D@std@@V?$allocator@D@2@@std@@V?$allocator@V?$basic_string@DU?$char_traits@D@std@@V?$allocator@D@2@@std@@@2@@std@@XZ
?pc@CorePrStatus@ELF@LIEF@@QEBA_KXZ
?pc@ThreadCommand@MachO@LIEF@@QEBA_KXZ
?pc_relative@RelocationDyld@MachO@LIEF@@UEAAX_N@Z
?pc_relative@RelocationObject@MachO@LIEF@@UEAAX_N@Z
?permute_dynamic_symbols@Binary@ELF@LIEF@@QEAAXAEBV?$vector@_KV?$allocator@_K@std@@@std@@@Z
?pgrp@CorePrPsInfo@ELF@LIEF@@QEAAXH@Z
?pgrp@CorePrPsInfo@ELF@LIEF@@QEBAHXZ
?pgrp@CorePrStatus@ELF@LIEF@@QEAAXH@Z
?pgrp@CorePrStatus@ELF@LIEF@@QEBAHXZ
?physical_address@Segment@ELF@LIEF@@QEAAX_K@Z
?physical_address@Segment@ELF@LIEF@@QEBA_KXZ
?physical_size@Segment@ELF@LIEF@@QEAAX_K@Z
?physical_size@Segment@ELF@LIEF@@QEBA_KXZ
?pid@CorePrPsInfo@ELF@LIEF@@QEAAXH@Z
?pid@CorePrPsInfo@ELF@LIEF@@QEBAHXZ
?pid@CorePrStatus@ELF@LIEF@@QEAAXH@Z
?pid@CorePrStatus@ELF@LIEF@@QEBAHXZ
?pixels@ResourceIcon@PE@LIEF@@QEAAXAEBV?$vector@EV?$allocator@E@std@@@std@@@Z
?pixels@ResourceIcon@PE@LIEF@@QEBAAEBV?$vector@EV?$allocator@E@std@@@std@@XZ
?planes@ResourceIcon@PE@LIEF@@QEAAXG@Z
?planes@ResourceIcon@PE@LIEF@@QEBAGXZ
?platform@BuildVersion@MachO@LIEF@@QEAAXW4PLATFORMS@123@@Z
?platform@BuildVersion@MachO@LIEF@@QEBA?AW4PLATFORMS@123@XZ
?pltgot_relocations@Binary@ELF@LIEF@@QEAA?AV?$filter_iterator@AEAV?$vector@V?$unique_ptr@VRelocation@ELF@LIEF@@U?$default_delete@VRelocation@ELF@LIEF@@@std@@@std@@V?$allocator@V?$unique_ptr@VRelocation@ELF@LIEF@@U?$default_delete@VRelocation@ELF@LIEF@@@std@@@std@@@2@@std@@PEAVRelocation@ELF@LIEF@@V?$_Vector_iterator@V?$_Vector_val@U?$_Simple_types@V?$unique_ptr@VRelocation@ELF@LIEF@@U?$default_delete@VRelocation@ELF@LIEF@@@std@@@std@@@std@@@std@@@2@@3@XZ
?pltgot_relocations@Binary@ELF@LIEF@@QEBA?AV?$filter_iterator@AEBV?$vector@V?$unique_ptr@VRelocation@ELF@LIEF@@U?$default_delete@VRelocation@ELF@LIEF@@@std@@@std@@V?$allocator@V?$unique_ptr@VRelocation@ELF@LIEF@@U?$default_delete@VRelocation@ELF@LIEF@@@std@@@std@@@2@@std@@PEBVRelocation@ELF@LIEF@@V?$_Vector_const_iterator@V?$_Vector_val@U?$_Simple_types@V?$unique_ptr@VRelocation@ELF@LIEF@@U?$default_delete@VRelocation@ELF@LIEF@@@std@@@std@@@std@@@std@@@2@@3@XZ
?pogo@Debug@PE@LIEF@@QEAAPEAVPogo@23@XZ
?pogo@Debug@PE@LIEF@@QEBAPEBVPogo@23@XZ
?point_size@ResourceDialog@PE@LIEF@@QEBAGXZ
?pointer_size@Binary@MachO@LIEF@@AEBA_KXZ
?pointer_size@Header@ART@LIEF@@QEBAIXZ
?pointerto_line_numbers@Section@PE@LIEF@@QEAAXI@Z
?pointerto_line_numbers@Section@PE@LIEF@@QEBAIXZ
?pointerto_raw_data@Section@PE@LIEF@@QEAAXI@Z
?pointerto_raw_data@Section@PE@LIEF@@QEBAIXZ
?pointerto_rawdata@Debug@PE@LIEF@@QEAAXI@Z
?pointerto_rawdata@Debug@PE@LIEF@@QEBAIXZ
?pointerto_relocation@Section@PE@LIEF@@QEAAXI@Z
?pointerto_relocation@Section@PE@LIEF@@QEBAIXZ
?pointerto_symbol_table@Header@PE@LIEF@@QEAAXI@Z
?pointerto_symbol_table@Header@PE@LIEF@@QEBAIXZ
?pop_back@FatBinary@MachO@LIEF@@QEAA?AV?$unique_ptr@VBinary@MachO@LIEF@@U?$default_delete@VBinary@MachO@LIEF@@@std@@@std@@XZ
?position@RelocationEntry@PE@LIEF@@QEAAXG@Z
?position@RelocationEntry@PE@LIEF@@QEBAGXZ
?ppc64_flags_list@Header@ELF@LIEF@@QEBA?AV?$set@W4PPC64_EFLAGS@ELF@LIEF@@U?$less@W4PPC64_EFLAGS@ELF@LIEF@@@std@@V?$allocator@W4PPC64_EFLAGS@ELF@LIEF@@@5@@std@@XZ
?ppid@CorePrPsInfo@ELF@LIEF@@QEAAXH@Z
?ppid@CorePrPsInfo@ELF@LIEF@@QEBAHXZ
?ppid@CorePrStatus@ELF@LIEF@@QEAAXH@Z
?ppid@CorePrStatus@ELF@LIEF@@QEBAHXZ
?predict_function_rva@Binary@PE@LIEF@@QEAAIAEBV?$basic_string@DU?$char_traits@D@std@@V?$allocator@D@2@@std@@0@Z
?pretty_name@Class@DEX@LIEF@@QEBA?AV?$basic_string@DU?$char_traits@D@std@@V?$allocator@D@2@@std@@XZ
?pretty_name@Type@DEX@LIEF@@SA?AV?$basic_string@DU?$char_traits@D@std@@V?$allocator@D@2@@std@@W4PRIMITIVES@123@@Z
?primitive@Type@DEX@LIEF@@QEAAAEAW4PRIMITIVES@123@XZ
?primitive@Type@DEX@LIEF@@QEBAAEBW4PRIMITIVES@123@XZ
?print@Binary@ELF@LIEF@@UEBAAEAV?$basic_ostream@DU?$char_traits@D@std@@@std@@AEAV45@@Z
?print@Binary@LIEF@@UEBAAEAV?$basic_ostream@DU?$char_traits@D@std@@@std@@AEAV34@@Z
?print@Binary@MachO@LIEF@@UEBAAEAV?$basic_ostream@DU?$char_traits@D@std@@@std@@AEAV45@@Z
?print@Binary@PE@LIEF@@UEBAAEAV?$basic_ostream@DU?$char_traits@D@std@@@std@@AEAV45@@Z
?print@BuildVersion@MachO@LIEF@@UEBAAEAV?$basic_ostream@DU?$char_traits@D@std@@@std@@AEAV45@@Z
?print@CodeSignature@MachO@LIEF@@UEBAAEAV?$basic_ostream@DU?$char_traits@D@std@@@std@@AEAV45@@Z
?print@ContentType@PE@LIEF@@UEBA?AV?$basic_string@DU?$char_traits@D@std@@V?$allocator@D@2@@std@@XZ
?print@DataInCode@MachO@LIEF@@UEBAAEAV?$basic_ostream@DU?$char_traits@D@std@@@std@@AEAV45@@Z
?print@DyldEnvironment@MachO@LIEF@@UEBAAEAV?$basic_ostream@DU?$char_traits@D@std@@@std@@AEAV45@@Z
?print@DyldInfo@MachO@LIEF@@UEBAAEAV?$basic_ostream@DU?$char_traits@D@std@@@std@@AEAV45@@Z
?print@DylibCommand@MachO@LIEF@@UEBAAEAV?$basic_ostream@DU?$char_traits@D@std@@@std@@AEAV45@@Z
?print@DylinkerCommand@MachO@LIEF@@UEBAAEAV?$basic_ostream@DU?$char_traits@D@std@@@std@@AEAV45@@Z
?print@DynamicEntry@ELF@LIEF@@UEBAAEAV?$basic_ostream@DU?$char_traits@D@std@@@std@@AEAV45@@Z
?print@DynamicEntryArray@ELF@LIEF@@UEBAAEAV?$basic_ostream@DU?$char_traits@D@std@@@std@@AEAV45@@Z
?print@DynamicEntryFlags@ELF@LIEF@@UEBAAEAV?$basic_ostream@DU?$char_traits@D@std@@@std@@AEAV45@@Z
?print@DynamicEntryLibrary@ELF@LIEF@@UEBAAEAV?$basic_ostream@DU?$char_traits@D@std@@@std@@AEAV45@@Z
?print@DynamicEntryRpath@ELF@LIEF@@UEBAAEAV?$basic_ostream@DU?$char_traits@D@std@@@std@@AEAV45@@Z
?print@DynamicEntryRunPath@ELF@LIEF@@UEBAAEAV?$basic_ostream@DU?$char_traits@D@std@@@std@@AEAV45@@Z
?print@DynamicSharedObject@ELF@LIEF@@UEBAAEAV?$basic_ostream@DU?$char_traits@D@std@@@std@@AEAV45@@Z
?print@DynamicSymbolCommand@MachO@LIEF@@UEBAAEAV?$basic_ostream@DU?$char_traits@D@std@@@std@@AEAV45@@Z
?print@EncryptionInfo@MachO@LIEF@@UEBAAEAV?$basic_ostream@DU?$char_traits@D@std@@@std@@AEAV45@@Z
?print@FilesetCommand@MachO@LIEF@@UEBAAEAV?$basic_ostream@DU?$char_traits@D@std@@@std@@AEAV45@@Z
?print@FunctionStarts@MachO@LIEF@@UEBAAEAV?$basic_ostream@DU?$char_traits@D@std@@@std@@AEAV45@@Z
?print@GenericType@PE@LIEF@@UEBA?AV?$basic_string@DU?$char_traits@D@std@@V?$allocator@D@2@@std@@XZ
?print@LoadCommand@MachO@LIEF@@UEBAAEAV?$basic_ostream@DU?$char_traits@D@std@@@std@@AEAV45@@Z
?print@LoadConfiguration@PE@LIEF@@UEBAAEAV?$basic_ostream@DU?$char_traits@D@std@@@std@@AEAV45@@Z
?print@LoadConfigurationV0@PE@LIEF@@UEBAAEAV?$basic_ostream@DU?$char_traits@D@std@@@std@@AEAV45@@Z
?print@LoadConfigurationV1@PE@LIEF@@UEBAAEAV?$basic_ostream@DU?$char_traits@D@std@@@std@@AEAV45@@Z
?print@LoadConfigurationV2@PE@LIEF@@UEBAAEAV?$basic_ostream@DU?$char_traits@D@std@@@std@@AEAV45@@Z
?print@LoadConfigurationV3@PE@LIEF@@UEBAAEAV?$basic_ostream@DU?$char_traits@D@std@@@std@@AEAV45@@Z
?print@LoadConfigurationV4@PE@LIEF@@UEBAAEAV?$basic_ostream@DU?$char_traits@D@std@@@std@@AEAV45@@Z
?print@LoadConfigurationV5@PE@LIEF@@UEBAAEAV?$basic_ostream@DU?$char_traits@D@std@@@std@@AEAV45@@Z
?print@LoadConfigurationV6@PE@LIEF@@UEBAAEAV?$basic_ostream@DU?$char_traits@D@std@@@std@@AEAV45@@Z
?print@LoadConfigurationV7@PE@LIEF@@UEBAAEAV?$basic_ostream@DU?$char_traits@D@std@@@std@@AEAV45@@Z
?print@MainCommand@MachO@LIEF@@UEBAAEAV?$basic_ostream@DU?$char_traits@D@std@@@std@@AEAV45@@Z
?print@MsSpcNestedSignature@PE@LIEF@@UEBA?AV?$basic_string@DU?$char_traits@D@std@@V?$allocator@D@2@@std@@XZ
?print@MsSpcStatementType@PE@LIEF@@UEBA?AV?$basic_string@DU?$char_traits@D@std@@V?$allocator@D@2@@std@@XZ
?print@PKCS9AtSequenceNumber@PE@LIEF@@UEBA?AV?$basic_string@DU?$char_traits@D@std@@V?$allocator@D@2@@std@@XZ
?print@PKCS9CounterSignature@PE@LIEF@@UEBA?AV?$basic_string@DU?$char_traits@D@std@@V?$allocator@D@2@@std@@XZ
?print@PKCS9MessageDigest@PE@LIEF@@UEBA?AV?$basic_string@DU?$char_traits@D@std@@V?$allocator@D@2@@std@@XZ
?print@PKCS9SigningTime@PE@LIEF@@UEBA?AV?$basic_string@DU?$char_traits@D@std@@V?$allocator@D@2@@std@@XZ
?print@RPathCommand@MachO@LIEF@@UEBAAEAV?$basic_ostream@DU?$char_traits@D@std@@@std@@AEAV45@@Z
?print@Relocation@MachO@LIEF@@UEBAAEAV?$basic_ostream@DU?$char_traits@D@std@@@std@@AEAV45@@Z
?print@RelocationDyld@MachO@LIEF@@UEBAAEAV?$basic_ostream@DU?$char_traits@D@std@@@std@@AEAV45@@Z
?print@RelocationObject@MachO@LIEF@@UEBAAEAV?$basic_ostream@DU?$char_traits@D@std@@@std@@AEAV45@@Z
?print@ResourcesManager@PE@LIEF@@QEBA?AV?$basic_string@DU?$char_traits@D@std@@V?$allocator@D@2@@std@@I@Z
?print@SegmentCommand@MachO@LIEF@@UEBAAEAV?$basic_ostream@DU?$char_traits@D@std@@@std@@AEAV45@@Z
?print@SegmentSplitInfo@MachO@LIEF@@UEBAAEAV?$basic_ostream@DU?$char_traits@D@std@@@std@@AEAV45@@Z
?print@SourceVersion@MachO@LIEF@@UEBAAEAV?$basic_ostream@DU?$char_traits@D@std@@@std@@AEAV45@@Z
?print@SpcSpOpusInfo@PE@LIEF@@UEBA?AV?$basic_string@DU?$char_traits@D@std@@V?$allocator@D@2@@std@@XZ
?print@SubFramework@MachO@LIEF@@UEBAAEAV?$basic_ostream@DU?$char_traits@D@std@@@std@@AEAV45@@Z
?print@SymbolCommand@MachO@LIEF@@UEBAAEAV?$basic_ostream@DU?$char_traits@D@std@@@std@@AEAV45@@Z
?print@ThreadCommand@MachO@LIEF@@UEBAAEAV?$basic_ostream@DU?$char_traits@D@std@@@std@@AEAV45@@Z
?print@UUIDCommand@MachO@LIEF@@UEBAAEAV?$basic_ostream@DU?$char_traits@D@std@@@std@@AEAV45@@Z
?print@VersionMin@MachO@LIEF@@UEBAAEAV?$basic_ostream@DU?$char_traits@D@std@@@std@@AEAV45@@Z
?print_tree@ResourcesManager@PE@LIEF@@AEBAXAEBVResourceNode@23@AEAV?$basic_ostringstream@DU?$char_traits@D@std@@V?$allocator@D@2@@std@@II@Z
?process@Hash@LIEF@@UEAAAEAV12@AEBV?$basic_string@DU?$char_traits@D@std@@V?$allocator@D@2@@std@@@Z
?process@Hash@LIEF@@UEAAAEAV12@AEBV?$basic_string@_SU?$char_traits@_S@std@@V?$allocator@_S@2@@std@@@Z
?process@Hash@LIEF@@UEAAAEAV12@AEBV?$vector@EV?$allocator@E@std@@@std@@@Z
?process@Hash@LIEF@@UEAAAEAV12@AEBVObject@2@@Z
?process@Hash@LIEF@@UEAAAEAV12@V?$span@$$CBE$0?0@tcb@@@Z
?process@Hash@LIEF@@UEAAAEAV12@_K@Z
?process_affinity_mask@LoadConfiguration@PE@LIEF@@QEAAX_K@Z
?process_affinity_mask@LoadConfiguration@PE@LIEF@@QEBA_KXZ
?process_heap_flags@LoadConfiguration@PE@LIEF@@QEAAXI@Z
?process_heap_flags@LoadConfiguration@PE@LIEF@@QEBAIXZ
?processor_flag@Header@ELF@LIEF@@QEAAXI@Z
?processor_flag@Header@ELF@LIEF@@QEBAIXZ
?product_version_LS@ResourceFixedFileInfo@PE@LIEF@@QEAAXI@Z
?product_version_LS@ResourceFixedFileInfo@PE@LIEF@@QEBAIXZ
?product_version_MS@ResourceFixedFileInfo@PE@LIEF@@QEAAXI@Z
?product_version_MS@ResourceFixedFileInfo@PE@LIEF@@QEBAIXZ
?program_header_size@Header@ELF@LIEF@@QEAAXI@Z
?program_header_size@Header@ELF@LIEF@@QEBAIXZ
?program_headers_offset@Header@ELF@LIEF@@QEAAX_K@Z
?program_headers_offset@Header@ELF@LIEF@@QEBA_KXZ
?program_name@SpcSpOpusInfo@PE@LIEF@@QEBAAEBV?$basic_string@DU?$char_traits@D@std@@V?$allocator@D@2@@std@@XZ
?prototype@Method@DEX@LIEF@@QEAAPEAVPrototype@23@XZ
?prototype@Method@DEX@LIEF@@QEBAPEBVPrototype@23@XZ
?prototypes@File@DEX@LIEF@@QEAA?AV?$ref_iterator@AEAV?$vector@V?$unique_ptr@VPrototype@DEX@LIEF@@U?$default_delete@VPrototype@DEX@LIEF@@@std@@@std@@V?$allocator@V?$unique_ptr@VPrototype@DEX@LIEF@@U?$default_delete@VPrototype@DEX@LIEF@@@std@@@std@@@2@@std@@PEAVPrototype@DEX@LIEF@@V?$_Vector_iterator@V?$_Vector_val@U?$_Simple_types@V?$unique_ptr@VPrototype@DEX@LIEF@@U?$default_delete@VPrototype@DEX@LIEF@@@std@@@std@@@std@@@std@@@2@@3@XZ
?prototypes@File@DEX@LIEF@@QEBA?AV?$ref_iterator@AEBV?$vector@V?$unique_ptr@VPrototype@DEX@LIEF@@U?$default_delete@VPrototype@DEX@LIEF@@@std@@@std@@V?$allocator@V?$unique_ptr@VPrototype@DEX@LIEF@@U?$default_delete@VPrototype@DEX@LIEF@@@std@@@std@@@2@@std@@PEBVPrototype@DEX@LIEF@@V?$_Vector_const_iterator@V?$_Vector_val@U?$_Simple_types@V?$unique_ptr@VPrototype@DEX@LIEF@@U?$default_delete@VPrototype@DEX@LIEF@@@std@@@std@@@std@@@std@@@2@@3@XZ
?prototypes@Header@DEX@LIEF@@QEBA?AU?$pair@II@std@@XZ
?purpose@Relocation@ELF@LIEF@@QEAAXW4RELOCATION_PURPOSES@23@@Z
?purpose@Relocation@ELF@LIEF@@QEBA?AW4RELOCATION_PURPOSES@23@XZ
?quick@ParserConfig@MachO@LIEF@@SA?AU123@XZ
?quick_code@Method@OAT@LIEF@@QEAAXAEBV?$vector@EV?$allocator@E@std@@@std@@@Z
?quick_code@Method@OAT@LIEF@@QEBAAEBV?$vector@EV?$allocator@E@std@@@std@@XZ
?quick_generic_jni_trampoline_offset@Header@OAT@LIEF@@QEBAIXZ
?quick_imt_conflict_trampoline_offset@Header@OAT@LIEF@@QEBAIXZ
?quick_resolution_trampoline_offset@Header@OAT@LIEF@@QEBAIXZ
?quick_to_interpreter_bridge_offset@Header@OAT@LIEF@@QEBAIXZ
?quickening_info_size@Header@VDEX@LIEF@@QEBAIXZ
?raw@Binary@ELF@LIEF@@QEAA?AV?$vector@EV?$allocator@E@std@@@std@@XZ
?raw@Binary@MachO@LIEF@@QEAA?AV?$vector@EV?$allocator@E@std@@@std@@XZ
?raw@FatBinary@MachO@LIEF@@QEAA?AV?$vector@EV?$allocator@E@std@@@std@@XZ
?raw@File@DEX@LIEF@@QEBA?AV?$vector@EV?$allocator@E@std@@@std@@_N@Z
?raw@RichHeader@PE@LIEF@@QEBA?AV?$vector@EV?$allocator@E@std@@@std@@I@Z
?raw@RichHeader@PE@LIEF@@QEBA?AV?$vector@EV?$allocator@E@std@@@std@@XZ
?raw@x509@PE@LIEF@@QEBA?AV?$vector@EV?$allocator@E@std@@@std@@XZ
?raw_auth_data@SignerInfo@PE@LIEF@@QEBA?BV?$vector@EV?$allocator@E@std@@@std@@XZ
?raw_content@GenericType@PE@LIEF@@QEBAAEBV?$vector@EV?$allocator@E@std@@@std@@XZ
?raw_der@Signature@PE@LIEF@@QEBAAEBV?$vector@EV?$allocator@E@std@@@std@@XZ
?raw_flags@Section@MachO@LIEF@@QEBAIXZ
?rebase@DyldInfo@MachO@LIEF@@QEAAXAEBU?$pair@II@std@@@Z
?rebase@DyldInfo@MachO@LIEF@@QEBAAEBU?$pair@II@std@@XZ
?rebase_opcodes@DyldInfo@MachO@LIEF@@QEAA?AV?$span@E$0?0@tcb@@XZ
?rebase_opcodes@DyldInfo@MachO@LIEF@@QEAAXV?$vector@EV?$allocator@E@std@@@std@@@Z
?rebase_opcodes@DyldInfo@MachO@LIEF@@QEBA?AV?$span@$$CBE$0?0@tcb@@XZ
?reexport_dylib@DylibCommand@MachO@LIEF@@SA?AV123@AEBV?$basic_string@DU?$char_traits@D@std@@V?$allocator@D@2@@std@@III@Z
?reg_context@CorePrStatus@ELF@LIEF@@QEAAXAEBV?$map@W4REGISTERS@CorePrStatus@ELF@LIEF@@_KU?$less@W4REGISTERS@CorePrStatus@ELF@LIEF@@@std@@V?$allocator@U?$pair@$$CBW4REGISTERS@CorePrStatus@ELF@LIEF@@_K@std@@@6@@std@@@Z
?reg_context@CorePrStatus@ELF@LIEF@@QEBAAEBV?$map@W4REGISTERS@CorePrStatus@ELF@LIEF@@_KU?$less@W4REGISTERS@CorePrStatus@ELF@LIEF@@@std@@V?$allocator@U?$pair@$$CBW4REGISTERS@CorePrStatus@ELF@LIEF@@_K@std@@@6@@std@@XZ
?reg_enum_range@CorePrStatus@ELF@LIEF@@AEBA?AU?$pair@_K_K@std@@XZ
?relative_index@Class@OAT@LIEF@@QEBAIAEBVMethod@DEX@3@@Z
?relative_index@Class@OAT@LIEF@@QEBAII@Z
?relocate_phdr_table@Binary@ELF@LIEF@@IEAA_KXZ
?relocate_phdr_table_pie@Binary@ELF@LIEF@@IEAA_KXZ
?relocate_phdr_table_v1@Binary@ELF@LIEF@@IEAA_KXZ
?relocate_phdr_table_v2@Binary@ELF@LIEF@@IEAA_KXZ
?relocation_offset@Section@MachO@LIEF@@QEAAXI@Z
?relocation_offset@Section@MachO@LIEF@@QEBAIXZ
?relocations@Binary@ELF@LIEF@@QEAA?AV?$ref_iterator@AEAV?$vector@V?$unique_ptr@VRelocation@ELF@LIEF@@U?$default_delete@VRelocation@ELF@LIEF@@@std@@@std@@V?$allocator@V?$unique_ptr@VRelocation@ELF@LIEF@@U?$default_delete@VRelocation@ELF@LIEF@@@std@@@std@@@2@@std@@PEAVRelocation@ELF@LIEF@@V?$_Vector_iterator@V?$_Vector_val@U?$_Simple_types@V?$unique_ptr@VRelocation@ELF@LIEF@@U?$default_delete@VRelocation@ELF@LIEF@@@std@@@std@@@std@@@std@@@2@@3@XZ
?relocations@Binary@ELF@LIEF@@QEBA?AV?$ref_iterator@AEBV?$vector@V?$unique_ptr@VRelocation@ELF@LIEF@@U?$default_delete@VRelocation@ELF@LIEF@@@std@@@std@@V?$allocator@V?$unique_ptr@VRelocation@ELF@LIEF@@U?$default_delete@VRelocation@ELF@LIEF@@@std@@@std@@@2@@std@@PEBVRelocation@ELF@LIEF@@V?$_Vector_const_iterator@V?$_Vector_val@U?$_Simple_types@V?$unique_ptr@VRelocation@ELF@LIEF@@U?$default_delete@VRelocation@ELF@LIEF@@@std@@@std@@@std@@@std@@@2@@3@XZ
?relocations@Binary@LIEF@@QEAA?AV?$ref_iterator@V?$vector@PEAVRelocation@LIEF@@V?$allocator@PEAVRelocation@LIEF@@@std@@@std@@PEAVRelocation@LIEF@@V?$_Vector_iterator@V?$_Vector_val@U?$_Simple_types@PEAVRelocation@LIEF@@@std@@@std@@@2@@2@XZ
?relocations@Binary@LIEF@@QEBA?AV?$ref_iterator@$$CBV?$vector@PEAVRelocation@LIEF@@V?$allocator@PEAVRelocation@LIEF@@@std@@@std@@PEAVRelocation@LIEF@@V?$_Vector_const_iterator@V?$_Vector_val@U?$_Simple_types@PEAVRelocation@LIEF@@@std@@@std@@@2@@2@XZ
?relocations@Binary@MachO@LIEF@@QEAA?AV?$ref_iterator@AEAV?$set@PEAVRelocation@MachO@LIEF@@UKeyCmp@Binary@23@V?$allocator@PEAVRelocation@MachO@LIEF@@@std@@@std@@PEAVRelocation@MachO@LIEF@@V?$_Tree_const_iterator@V?$_Tree_val@U?$_Tree_simple_types@PEAVRelocation@MachO@LIEF@@@std@@@std@@@2@@3@XZ
?relocations@Binary@MachO@LIEF@@QEBA?AV?$ref_iterator@AEBV?$set@PEAVRelocation@MachO@LIEF@@UKeyCmp@Binary@23@V?$allocator@PEAVRelocation@MachO@LIEF@@@std@@@std@@PEBVRelocation@MachO@LIEF@@V?$_Tree_const_iterator@V?$_Tree_val@U?$_Tree_simple_types@PEAVRelocation@MachO@LIEF@@@std@@@std@@@2@@3@XZ
?relocations@Binary@PE@LIEF@@QEAA?AV?$ref_iterator@AEAV?$vector@V?$unique_ptr@VRelocation@PE@LIEF@@U?$default_delete@VRelocation@PE@LIEF@@@std@@@std@@V?$allocator@V?$unique_ptr@VRelocation@PE@LIEF@@U?$default_delete@VRelocation@PE@LIEF@@@std@@@std@@@2@@std@@PEAVRelocation@PE@LIEF@@V?$_Vector_iterator@V?$_Vector_val@U?$_Simple_types@V?$unique_ptr@VRelocation@PE@LIEF@@U?$default_delete@VRelocation@PE@LIEF@@@std@@@std@@@std@@@std@@@2@@3@XZ
?relocations@Binary@PE@LIEF@@QEBA?AV?$ref_iterator@AEBV?$vector@V?$unique_ptr@VRelocation@PE@LIEF@@U?$default_delete@VRelocation@PE@LIEF@@@std@@@std@@V?$allocator@V?$unique_ptr@VRelocation@PE@LIEF@@U?$default_delete@VRelocation@PE@LIEF@@@std@@@std@@@2@@std@@PEBVRelocation@PE@LIEF@@V?$_Vector_const_iterator@V?$_Vector_val@U?$_Simple_types@V?$unique_ptr@VRelocation@PE@LIEF@@U?$default_delete@VRelocation@PE@LIEF@@@std@@@std@@@std@@@std@@@2@@3@XZ
?relocations@Section@MachO@LIEF@@QEAA?AV?$ref_iterator@AEAV?$vector@V?$unique_ptr@VRelocation@MachO@LIEF@@U?$default_delete@VRelocation@MachO@LIEF@@@std@@@std@@V?$allocator@V?$unique_ptr@VRelocation@MachO@LIEF@@U?$default_delete@VRelocation@MachO@LIEF@@@std@@@std@@@2@@std@@PEAVRelocation@MachO@LIEF@@V?$_Vector_iterator@V?$_Vector_val@U?$_Simple_types@V?$unique_ptr@VRelocation@MachO@LIEF@@U?$default_delete@VRelocation@MachO@LIEF@@@std@@@std@@@std@@@std@@@2@@3@XZ
?relocations@Section@MachO@LIEF@@QEBA?AV?$ref_iterator@AEBV?$vector@V?$unique_ptr@VRelocation@MachO@LIEF@@U?$default_delete@VRelocation@MachO@LIEF@@@std@@@std@@V?$allocator@V?$unique_ptr@VRelocation@MachO@LIEF@@U?$default_delete@VRelocation@MachO@LIEF@@@std@@@std@@@2@@std@@PEBVRelocation@MachO@LIEF@@V?$_Vector_const_iterator@V?$_Vector_val@U?$_Simple_types@V?$unique_ptr@VRelocation@MachO@LIEF@@U?$default_delete@VRelocation@MachO@LIEF@@@std@@@std@@@std@@@std@@@2@@3@XZ
?relocations@SegmentCommand@MachO@LIEF@@QEAA?AV?$ref_iterator@AEAV?$vector@V?$unique_ptr@VRelocation@MachO@LIEF@@U?$default_delete@VRelocation@MachO@LIEF@@@std@@@std@@V?$allocator@V?$unique_ptr@VRelocation@MachO@LIEF@@U?$default_delete@VRelocation@MachO@LIEF@@@std@@@std@@@2@@std@@PEAVRelocation@MachO@LIEF@@V?$_Vector_iterator@V?$_Vector_val@U?$_Simple_types@V?$unique_ptr@VRelocation@MachO@LIEF@@U?$default_delete@VRelocation@MachO@LIEF@@@std@@@std@@@std@@@std@@@2@@3@XZ
?relocations@SegmentCommand@MachO@LIEF@@QEBA?AV?$ref_iterator@AEBV?$vector@V?$unique_ptr@VRelocation@MachO@LIEF@@U?$default_delete@VRelocation@MachO@LIEF@@@std@@@std@@V?$allocator@V?$unique_ptr@VRelocation@MachO@LIEF@@U?$default_delete@VRelocation@MachO@LIEF@@@std@@@std@@@2@@std@@PEBVRelocation@MachO@LIEF@@V?$_Vector_const_iterator@V?$_Vector_val@U?$_Simple_types@V?$unique_ptr@VRelocation@MachO@LIEF@@U?$default_delete@VRelocation@MachO@LIEF@@@std@@@std@@@std@@@std@@@2@@3@XZ
?relocations_list@Binary@MachO@LIEF@@AEAAAEAV?$set@PEAVRelocation@MachO@LIEF@@UKeyCmp@Binary@23@V?$allocator@PEAVRelocation@MachO@LIEF@@@std@@@std@@XZ
?relocations_list@Binary@MachO@LIEF@@AEBAAEBV?$set@PEAVRelocation@MachO@LIEF@@UKeyCmp@Binary@23@V?$allocator@PEAVRelocation@MachO@LIEF@@@std@@@std@@XZ
?remove@Binary@ELF@LIEF@@QEAAXAEBVDynamicEntry@23@@Z
?remove@Binary@ELF@LIEF@@QEAAXAEBVNote@23@@Z
?remove@Binary@ELF@LIEF@@QEAAXAEBVSection@23@_N@Z
?remove@Binary@ELF@LIEF@@QEAAXAEBVSegment@23@@Z
?remove@Binary@ELF@LIEF@@QEAAXW4DYNAMIC_TAGS@23@@Z
?remove@Binary@ELF@LIEF@@QEAAXW4NOTE_TYPES@23@@Z
?remove@Binary@MachO@LIEF@@QEAA_NAEBVLoadCommand@23@@Z
?remove@Binary@MachO@LIEF@@QEAA_NAEBVSymbol@23@@Z
?remove@Binary@MachO@LIEF@@QEAA_NW4LOAD_COMMAND_TYPES@23@@Z
?remove@Binary@PE@LIEF@@QEAAXAEBVSection@23@_N@Z
?remove@DynamicEntryArray@ELF@LIEF@@QEAAAEAV123@_K@Z
?remove@DynamicEntryFlags@ELF@LIEF@@QEAAXW4DYNAMIC_FLAGS@23@@Z
?remove@DynamicEntryFlags@ELF@LIEF@@QEAAXW4DYNAMIC_FLAGS_1@23@@Z
?remove@DynamicEntryRpath@ELF@LIEF@@QEAAAEAV123@AEBV?$basic_string@DU?$char_traits@D@std@@V?$allocator@D@2@@std@@@Z
?remove@DynamicEntryRunPath@ELF@LIEF@@QEAAAEAV123@AEBV?$basic_string@DU?$char_traits@D@std@@V?$allocator@D@2@@std@@@Z
?remove@Handler@DataHandler@ELF@LIEF@@QEAAX_K0W4Type@Node@234@@Z
?remove@Header@MachO@LIEF@@QEAAXW4HEADER_FLAGS@23@@Z
?remove@OptionalHeader@PE@LIEF@@QEAAXW4DLL_CHARACTERISTICS@23@@Z
?remove@Section@ELF@LIEF@@QEAAXW4ELF_SECTION_FLAGS@23@@Z
?remove@Section@MachO@LIEF@@QEAAXW4MACHO_SECTION_FLAGS@23@@Z
?remove@Segment@ELF@LIEF@@QEAAXW4ELF_SEGMENT_FLAGS@23@@Z
?remove_all_libraries@Binary@PE@LIEF@@QEAAXXZ
?remove_all_relocations@Binary@PE@LIEF@@QEAAXXZ
?remove_all_sections@SegmentCommand@MachO@LIEF@@QEAAXXZ
?remove_characteristic@Header@PE@LIEF@@QEAAXW4HEADER_CHARACTERISTICS@23@@Z
?remove_characteristic@Section@PE@LIEF@@QEAAXW4SECTION_CHARACTERISTICS@23@@Z
?remove_command@Binary@MachO@LIEF@@QEAA_N_K@Z
?remove_dynamic_symbol@Binary@ELF@LIEF@@QEAAXAEBV?$basic_string@DU?$char_traits@D@std@@V?$allocator@D@2@@std@@@Z
?remove_dynamic_symbol@Binary@ELF@LIEF@@QEAAXPEAVSymbol@23@@Z
?remove_fixed_file_info@ResourceVersion@PE@LIEF@@QEAAXXZ
?remove_library@Binary@ELF@LIEF@@QEAAXAEBV?$basic_string@DU?$char_traits@D@std@@V?$allocator@D@2@@std@@@Z
?remove_library@Binary@PE@LIEF@@QEAAXAEBV?$basic_string@DU?$char_traits@D@std@@V?$allocator@D@2@@std@@@Z
?remove_section@Binary@ELF@LIEF@@UEAAXAEBV?$basic_string@DU?$char_traits@D@std@@V?$allocator@D@2@@std@@_N@Z
?remove_section@Binary@MachO@LIEF@@UEAAXAEBV?$basic_string@DU?$char_traits@D@std@@V?$allocator@D@2@@std@@_N@Z
?remove_section@Binary@PE@LIEF@@UEAAXAEBV?$basic_string@DU?$char_traits@D@std@@V?$allocator@D@2@@std@@_N@Z
?remove_signature@Binary@MachO@LIEF@@QEAA_NXZ
?remove_static_symbol@Binary@ELF@LIEF@@QEAAXAEBV?$basic_string@DU?$char_traits@D@std@@V?$allocator@D@2@@std@@@Z
?remove_static_symbol@Binary@ELF@LIEF@@QEAAXPEAVSymbol@23@@Z
?remove_string_file_info@ResourceVersion@PE@LIEF@@QEAAXXZ
?remove_symbol@Binary@ELF@LIEF@@QEAAXAEBV?$basic_string@DU?$char_traits@D@std@@V?$allocator@D@2@@std@@@Z
?remove_symbol@Binary@MachO@LIEF@@QEAA_NAEBV?$basic_string@DU?$char_traits@D@std@@V?$allocator@D@2@@std@@@Z
?remove_type@Section@PE@LIEF@@QEAAXW4PE_SECTION_TYPES@23@@Z
?remove_var_file_info@ResourceVersion@PE@LIEF@@QEAAXXZ
?replace@Binary@ELF@LIEF@@QEAAAEAVSegment@23@AEBV423@0_K@Z
?reserve@Handler@DataHandler@ELF@LIEF@@QEAA?AV?$result@Uok_t@LIEF@@@leaf@boost@@_K0@Z
?reserved1@LoadConfiguration@PE@LIEF@@QEAAXG@Z
?reserved1@LoadConfiguration@PE@LIEF@@QEBAGXZ
?reserved1@Section@MachO@LIEF@@QEAAXI@Z
?reserved1@Section@MachO@LIEF@@QEBAIXZ
?reserved2@DosHeader@PE@LIEF@@QEAAXAEBV?$array@G$09@std@@@Z
?reserved2@DosHeader@PE@LIEF@@QEBA?AV?$array@G$09@std@@XZ
?reserved2@LoadConfigurationV5@PE@LIEF@@QEAAXG@Z
?reserved2@LoadConfigurationV5@PE@LIEF@@QEBAGXZ
?reserved2@Section@MachO@LIEF@@QEAAXI@Z
?reserved2@Section@MachO@LIEF@@QEBAIXZ
?reserved3@LoadConfigurationV7@PE@LIEF@@QEAAXI@Z
?reserved3@LoadConfigurationV7@PE@LIEF@@QEBAIXZ
?reserved3@Section@MachO@LIEF@@QEAAXI@Z
?reserved3@Section@MachO@LIEF@@QEBAIXZ
?reserved@CodeIntegrity@PE@LIEF@@QEAAXI@Z
?reserved@CodeIntegrity@PE@LIEF@@QEBAIXZ
?reserved@DosHeader@PE@LIEF@@QEAAXAEBV?$array@G$03@std@@@Z
?reserved@DosHeader@PE@LIEF@@QEBA?AV?$array@G$03@std@@XZ
?reserved@Header@MachO@LIEF@@QEAAXI@Z
?reserved@Header@MachO@LIEF@@QEBAIXZ
?reserved@MapItem@DEX@LIEF@@QEBAGXZ
?reserved@ResourceData@PE@LIEF@@QEAAXI@Z
?reserved@ResourceData@PE@LIEF@@QEBAIXZ
?reserved@ResourceIcon@PE@LIEF@@QEAAXE@Z
?reserved@ResourceIcon@PE@LIEF@@QEBAEXZ
?resolve_external_fields@Parser@DEX@LIEF@@AEAAXXZ
?resolve_external_methods@Parser@DEX@LIEF@@AEAAXXZ
?resolve_inheritance@Parser@DEX@LIEF@@AEAAXXZ
?resolve_ordinals@PE@LIEF@@YA?AVImport@12@AEBV312@_N1@Z
?resolve_types@Parser@DEX@LIEF@@AEAAXXZ
?resources@Binary@PE@LIEF@@QEAAPEAVResourceNode@23@XZ
?resources@Binary@PE@LIEF@@QEBAPEBVResourceNode@23@XZ
?resources_manager@Binary@PE@LIEF@@QEAA?AVResourcesManager@23@XZ
?resources_manager@Binary@PE@LIEF@@QEBA?BVResourcesManager@23@XZ
?return_type@Prototype@DEX@LIEF@@QEAAPEAVType@23@XZ
?return_type@Prototype@DEX@LIEF@@QEBAPEBVType@23@XZ
?rich_header@Binary@PE@LIEF@@QEAAAEAVRichHeader@23@XZ
?rich_header@Binary@PE@LIEF@@QEAAXAEBVRichHeader@23@@Z
?rich_header@Binary@PE@LIEF@@QEBAAEBVRichHeader@23@XZ
?rpath@Binary@MachO@LIEF@@QEAAPEAVRPathCommand@23@XZ
?rpath@Binary@MachO@LIEF@@QEBAPEBVRPathCommand@23@XZ
?rpath@DynamicEntryRpath@ELF@LIEF@@QEAAXAEBV?$basic_string@DU?$char_traits@D@std@@V?$allocator@D@2@@std@@@Z
?rpath@DynamicEntryRpath@ELF@LIEF@@QEBAAEBV?$basic_string@DU?$char_traits@D@std@@V?$allocator@D@2@@std@@XZ
?rsa_info@x509@PE@LIEF@@QEBA?AV?$unique_ptr@VRsaInfo@PE@LIEF@@U?$default_delete@VRsaInfo@PE@LIEF@@@std@@@std@@XZ
?runpath@DynamicEntryRunPath@ELF@LIEF@@QEAAXAEBV?$basic_string@DU?$char_traits@D@std@@V?$allocator@D@2@@std@@@Z
?runpath@DynamicEntryRunPath@ELF@LIEF@@QEBAAEBV?$basic_string@DU?$char_traits@D@std@@V?$allocator@D@2@@std@@XZ
?rva_to_offset@Binary@PE@LIEF@@QEAA_K_K@Z
?save@File@DEX@LIEF@@QEBA?AV?$basic_string@DU?$char_traits@D@std@@V?$allocator@D@2@@std@@AEBV45@_N@Z
?save@ResourceIcon@PE@LIEF@@QEBAXAEBV?$basic_string@DU?$char_traits@D@std@@V?$allocator@D@2@@std@@@Z
?sdk@BuildVersion@MachO@LIEF@@QEAAXV?$array@I$02@std@@@Z
?sdk@BuildVersion@MachO@LIEF@@QEBA?AV?$array@I$02@std@@XZ
?sdk@VersionMin@MachO@LIEF@@QEAAXAEBV?$array@I$02@std@@@Z
?sdk@VersionMin@MachO@LIEF@@QEBAAEBV?$array@I$02@std@@XZ
?sdk_version@AndroidNote@ELF@LIEF@@QEAAXI@Z
?sdk_version@AndroidNote@ELF@LIEF@@QEBAIXZ
?sdk_version_offset@AndroidNote@ELF@LIEF@@2_KB
?sdk_version_size@AndroidNote@ELF@LIEF@@2_KB
?se_handler_count@LoadConfigurationV0@PE@LIEF@@QEAAX_K@Z
?se_handler_count@LoadConfigurationV0@PE@LIEF@@QEBA_KXZ
?se_handler_table@LoadConfigurationV0@PE@LIEF@@QEAAX_K@Z
?se_handler_table@LoadConfigurationV0@PE@LIEF@@QEBA_KXZ
?search@Section@LIEF@@QEBA_KAEBV?$basic_string@DU?$char_traits@D@std@@V?$allocator@D@2@@std@@_K@Z
?search@Section@LIEF@@QEBA_KAEBV?$vector@EV?$allocator@E@std@@@std@@_K@Z
?search@Section@LIEF@@QEBA_K_K00@Z
?search@Section@LIEF@@QEBA_K_K0@Z
?search_all@Section@LIEF@@QEBA?AV?$vector@_KV?$allocator@_K@std@@@std@@AEBV?$basic_string@DU?$char_traits@D@std@@V?$allocator@D@2@@4@@Z
?search_all@Section@LIEF@@QEBA?AV?$vector@_KV?$allocator@_K@std@@@std@@_K0@Z
?search_all@Section@LIEF@@QEBA?AV?$vector@_KV?$allocator@_K@std@@@std@@_K@Z
?section@DataDirectory@PE@LIEF@@QEAAPEAVSection@23@XZ
?section@DataDirectory@PE@LIEF@@QEBAPEBVSection@23@XZ
?section@Relocation@ELF@LIEF@@QEAAPEAVSection@23@XZ
?section@Relocation@ELF@LIEF@@QEAAXPEAVSection@23@@Z
?section@Relocation@ELF@LIEF@@QEBAPEBVSection@23@XZ
?section@Relocation@MachO@LIEF@@QEAAPEAVSection@23@XZ
?section@Relocation@MachO@LIEF@@QEBAPEBVSection@23@XZ
?section@Symbol@ELF@LIEF@@QEAAPEAVSection@23@XZ
?section@Symbol@PE@LIEF@@QEAAPEAVSection@23@XZ
?section@Symbol@PE@LIEF@@QEBAPEBVSection@23@XZ
?section@TLS@PE@LIEF@@QEAAPEAVSection@23@XZ
?section@TLS@PE@LIEF@@QEBAPEBVSection@23@XZ
?section_alignment@OptionalHeader@PE@LIEF@@QEAAXI@Z
?section_alignment@OptionalHeader@PE@LIEF@@QEBAIXZ
?section_from_offset@Binary@ELF@LIEF@@QEAAPEAVSection@23@_K_N@Z
?section_from_offset@Binary@ELF@LIEF@@QEBAPEBVSection@23@_K_N@Z
?section_from_offset@Binary@MachO@LIEF@@QEAAPEAVSection@23@_K@Z
?section_from_offset@Binary@MachO@LIEF@@QEBAPEBVSection@23@_K@Z
?section_from_offset@Binary@PE@LIEF@@QEAAPEAVSection@23@_K@Z
?section_from_offset@Binary@PE@LIEF@@QEBAPEBVSection@23@_K@Z
?section_from_rva@Binary@PE@LIEF@@QEAAPEAVSection@23@_K@Z
?section_from_rva@Binary@PE@LIEF@@QEBAPEBVSection@23@_K@Z
?section_from_virtual_address@Binary@ELF@LIEF@@QEAAPEAVSection@23@_K_N@Z
?section_from_virtual_address@Binary@ELF@LIEF@@QEBAPEBVSection@23@_K_N@Z
?section_from_virtual_address@Binary@MachO@LIEF@@QEAAPEAVSection@23@_K@Z
?section_from_virtual_address@Binary@MachO@LIEF@@QEBAPEBVSection@23@_K@Z
?section_header_size@Header@ELF@LIEF@@QEAAXI@Z
?section_header_size@Header@ELF@LIEF@@QEBAIXZ
?section_headers_offset@Header@ELF@LIEF@@QEAAX_K@Z
?section_headers_offset@Header@ELF@LIEF@@QEBA_KXZ
?section_idx@Symbol@ELF@LIEF@@QEBAGXZ
?section_name_table_idx@Header@ELF@LIEF@@QEAAXI@Z
?section_name_table_idx@Header@ELF@LIEF@@QEBAIXZ
?section_number@Symbol@PE@LIEF@@QEBAFXZ
?sections@Binary@ELF@LIEF@@QEAA?AV?$ref_iterator@AEAV?$vector@V?$unique_ptr@VSection@ELF@LIEF@@U?$default_delete@VSection@ELF@LIEF@@@std@@@std@@V?$allocator@V?$unique_ptr@VSection@ELF@LIEF@@U?$default_delete@VSection@ELF@LIEF@@@std@@@std@@@2@@std@@PEAVSection@ELF@LIEF@@V?$_Vector_iterator@V?$_Vector_val@U?$_Simple_types@V?$unique_ptr@VSection@ELF@LIEF@@U?$default_delete@VSection@ELF@LIEF@@@std@@@std@@@std@@@std@@@2@@3@XZ
?sections@Binary@ELF@LIEF@@QEBA?AV?$ref_iterator@AEBV?$vector@V?$unique_ptr@VSection@ELF@LIEF@@U?$default_delete@VSection@ELF@LIEF@@@std@@@std@@V?$allocator@V?$unique_ptr@VSection@ELF@LIEF@@U?$default_delete@VSection@ELF@LIEF@@@std@@@std@@@2@@std@@PEBVSection@ELF@LIEF@@V?$_Vector_const_iterator@V?$_Vector_val@U?$_Simple_types@V?$unique_ptr@VSection@ELF@LIEF@@U?$default_delete@VSection@ELF@LIEF@@@std@@@std@@@std@@@std@@@2@@3@XZ
?sections@Binary@LIEF@@QEAA?AV?$ref_iterator@V?$vector@PEAVSection@LIEF@@V?$allocator@PEAVSection@LIEF@@@std@@@std@@PEAVSection@LIEF@@V?$_Vector_iterator@V?$_Vector_val@U?$_Simple_types@PEAVSection@LIEF@@@std@@@std@@@2@@2@XZ
?sections@Binary@LIEF@@QEBA?AV?$ref_iterator@$$CBV?$vector@PEAVSection@LIEF@@V?$allocator@PEAVSection@LIEF@@@std@@@std@@PEAVSection@LIEF@@V?$_Vector_const_iterator@V?$_Vector_val@U?$_Simple_types@PEAVSection@LIEF@@@std@@@std@@@2@@2@XZ
?sections@Binary@MachO@LIEF@@QEAA?AV?$ref_iterator@AEAV?$vector@PEAVSection@MachO@LIEF@@V?$allocator@PEAVSection@MachO@LIEF@@@std@@@std@@PEAVSection@MachO@LIEF@@V?$_Vector_iterator@V?$_Vector_val@U?$_Simple_types@PEAVSection@MachO@LIEF@@@std@@@std@@@2@@3@XZ
?sections@Binary@MachO@LIEF@@QEBA?AV?$ref_iterator@AEBV?$vector@PEAVSection@MachO@LIEF@@V?$allocator@PEAVSection@MachO@LIEF@@@std@@@std@@PEAVSection@MachO@LIEF@@V?$_Vector_const_iterator@V?$_Vector_val@U?$_Simple_types@PEAVSection@MachO@LIEF@@@std@@@std@@@2@@3@XZ
?sections@Binary@PE@LIEF@@QEAA?AV?$ref_iterator@AEAV?$vector@V?$unique_ptr@VSection@PE@LIEF@@U?$default_delete@VSection@PE@LIEF@@@std@@@std@@V?$allocator@V?$unique_ptr@VSection@PE@LIEF@@U?$default_delete@VSection@PE@LIEF@@@std@@@std@@@2@@std@@PEAVSection@PE@LIEF@@V?$_Vector_iterator@V?$_Vector_val@U?$_Simple_types@V?$unique_ptr@VSection@PE@LIEF@@U?$default_delete@VSection@PE@LIEF@@@std@@@std@@@std@@@std@@@2@@3@XZ
?sections@Binary@PE@LIEF@@QEBA?AV?$ref_iterator@AEBV?$vector@V?$unique_ptr@VSection@PE@LIEF@@U?$default_delete@VSection@PE@LIEF@@@std@@@std@@V?$allocator@V?$unique_ptr@VSection@PE@LIEF@@U?$default_delete@VSection@PE@LIEF@@@std@@@std@@@2@@std@@PEBVSection@PE@LIEF@@V?$_Vector_const_iterator@V?$_Vector_val@U?$_Simple_types@V?$unique_ptr@VSection@PE@LIEF@@U?$default_delete@VSection@PE@LIEF@@@std@@@std@@@std@@@std@@@2@@3@XZ
?sections@Segment@ELF@LIEF@@QEAA?AV?$ref_iterator@AEAV?$vector@PEAVSection@ELF@LIEF@@V?$allocator@PEAVSection@ELF@LIEF@@@std@@@std@@PEAVSection@ELF@LIEF@@V?$_Vector_iterator@V?$_Vector_val@U?$_Simple_types@PEAVSection@ELF@LIEF@@@std@@@std@@@2@@3@XZ
?sections@Segment@ELF@LIEF@@QEBA?AV?$ref_iterator@AEBV?$vector@PEAVSection@ELF@LIEF@@V?$allocator@PEAVSection@ELF@LIEF@@@std@@@std@@PEAVSection@ELF@LIEF@@V?$_Vector_const_iterator@V?$_Vector_val@U?$_Simple_types@PEAVSection@ELF@LIEF@@@std@@@std@@@2@@3@XZ
?sections@SegmentCommand@MachO@LIEF@@QEAA?AV?$ref_iterator@AEAV?$vector@V?$unique_ptr@VSection@MachO@LIEF@@U?$default_delete@VSection@MachO@LIEF@@@std@@@std@@V?$allocator@V?$unique_ptr@VSection@MachO@LIEF@@U?$default_delete@VSection@MachO@LIEF@@@std@@@std@@@2@@std@@PEAVSection@MachO@LIEF@@V?$_Vector_iterator@V?$_Vector_val@U?$_Simple_types@V?$unique_ptr@VSection@MachO@LIEF@@U?$default_delete@VSection@MachO@LIEF@@@std@@@std@@@std@@@std@@@2@@3@XZ
?sections@SegmentCommand@MachO@LIEF@@QEBA?AV?$ref_iterator@AEBV?$vector@V?$unique_ptr@VSection@MachO@LIEF@@U?$default_delete@VSection@MachO@LIEF@@@std@@@std@@V?$allocator@V?$unique_ptr@VSection@MachO@LIEF@@U?$default_delete@VSection@MachO@LIEF@@@std@@@std@@@2@@std@@PEBVSection@MachO@LIEF@@V?$_Vector_const_iterator@V?$_Vector_val@U?$_Simple_types@V?$unique_ptr@VSection@MachO@LIEF@@U?$default_delete@VSection@MachO@LIEF@@@std@@@std@@@std@@@std@@@2@@3@XZ
?security_cookie@LoadConfiguration@PE@LIEF@@QEAAXI@Z
?security_cookie@LoadConfiguration@PE@LIEF@@QEBAIXZ
?segment@BindingInfo@MachO@LIEF@@QEAAPEAVSegmentCommand@23@XZ
?segment@BindingInfo@MachO@LIEF@@QEBAPEBVSegmentCommand@23@XZ
?segment@Relocation@MachO@LIEF@@QEAAPEAVSegmentCommand@23@XZ
?segment@Relocation@MachO@LIEF@@QEBAPEBVSegmentCommand@23@XZ
?segment@Section@MachO@LIEF@@QEAAPEAVSegmentCommand@23@XZ
?segment@Section@MachO@LIEF@@QEBAPEBVSegmentCommand@23@XZ
?segment_from_offset@Binary@ELF@LIEF@@QEAAPEAVSegment@23@_K@Z
?segment_from_offset@Binary@ELF@LIEF@@QEBAPEBVSegment@23@_K@Z
?segment_from_offset@Binary@MachO@LIEF@@QEAAPEAVSegmentCommand@23@_K@Z
?segment_from_offset@Binary@MachO@LIEF@@QEBAPEBVSegmentCommand@23@_K@Z
?segment_from_virtual_address@Binary@ELF@LIEF@@QEAAPEAVSegment@23@_K@Z
?segment_from_virtual_address@Binary@ELF@LIEF@@QEBAPEBVSegment@23@_K@Z
?segment_from_virtual_address@Binary@MachO@LIEF@@QEAAPEAVSegmentCommand@23@_K@Z
?segment_from_virtual_address@Binary@MachO@LIEF@@QEBAPEBVSegmentCommand@23@_K@Z
?segment_index@Binary@MachO@LIEF@@QEBA_KAEBVSegmentCommand@23@@Z
?segment_name@Section@MachO@LIEF@@QEAAXAEBV?$basic_string@DU?$char_traits@D@std@@V?$allocator@D@2@@std@@@Z
?segment_name@Section@MachO@LIEF@@QEBAAEBV?$basic_string@DU?$char_traits@D@std@@V?$allocator@D@2@@std@@XZ
?segment_split_info@Binary@MachO@LIEF@@QEAAPEAVSegmentSplitInfo@23@XZ
?segment_split_info@Binary@MachO@LIEF@@QEBAPEBVSegmentSplitInfo@23@XZ
?segments@Binary@ELF@LIEF@@QEAA?AV?$ref_iterator@AEAV?$vector@V?$unique_ptr@VSegment@ELF@LIEF@@U?$default_delete@VSegment@ELF@LIEF@@@std@@@std@@V?$allocator@V?$unique_ptr@VSegment@ELF@LIEF@@U?$default_delete@VSegment@ELF@LIEF@@@std@@@std@@@2@@std@@PEAVSegment@ELF@LIEF@@V?$_Vector_iterator@V?$_Vector_val@U?$_Simple_types@V?$unique_ptr@VSegment@ELF@LIEF@@U?$default_delete@VSegment@ELF@LIEF@@@std@@@std@@@std@@@std@@@2@@3@XZ
?segments@Binary@ELF@LIEF@@QEBA?AV?$ref_iterator@AEBV?$vector@V?$unique_ptr@VSegment@ELF@LIEF@@U?$default_delete@VSegment@ELF@LIEF@@@std@@@std@@V?$allocator@V?$unique_ptr@VSegment@ELF@LIEF@@U?$default_delete@VSegment@ELF@LIEF@@@std@@@std@@@2@@std@@PEBVSegment@ELF@LIEF@@V?$_Vector_const_iterator@V?$_Vector_val@U?$_Simple_types@V?$unique_ptr@VSegment@ELF@LIEF@@U?$default_delete@VSegment@ELF@LIEF@@@std@@@std@@@std@@@std@@@2@@3@XZ
?segments@Binary@MachO@LIEF@@QEAA?AV?$ref_iterator@AEAV?$vector@PEAVSegmentCommand@MachO@LIEF@@V?$allocator@PEAVSegmentCommand@MachO@LIEF@@@std@@@std@@PEAVSegmentCommand@MachO@LIEF@@V?$_Vector_iterator@V?$_Vector_val@U?$_Simple_types@PEAVSegmentCommand@MachO@LIEF@@@std@@@std@@@2@@3@XZ
?segments@Binary@MachO@LIEF@@QEBA?AV?$ref_iterator@AEBV?$vector@PEAVSegmentCommand@MachO@LIEF@@V?$allocator@PEAVSegmentCommand@MachO@LIEF@@@std@@@std@@PEAVSegmentCommand@MachO@LIEF@@V?$_Vector_const_iterator@V?$_Vector_val@U?$_Simple_types@PEAVSegmentCommand@MachO@LIEF@@@std@@@std@@@2@@3@XZ
?segments@Section@ELF@LIEF@@QEAA?AV?$ref_iterator@AEAV?$vector@PEAVSegment@ELF@LIEF@@V?$allocator@PEAVSegment@ELF@LIEF@@@std@@@std@@PEAVSegment@ELF@LIEF@@V?$_Vector_iterator@V?$_Vector_val@U?$_Simple_types@PEAVSegment@ELF@LIEF@@@std@@@std@@@2@@3@XZ
?segments@Section@ELF@LIEF@@QEBA?AV?$ref_iterator@AEBV?$vector@PEAVSegment@ELF@LIEF@@V?$allocator@PEAVSegment@ELF@LIEF@@@std@@@std@@PEAVSegment@ELF@LIEF@@V?$_Vector_const_iterator@V?$_Vector_val@U?$_Simple_types@PEAVSegment@ELF@LIEF@@@std@@@std@@@2@@3@XZ
?serial_number@SignerInfo@PE@LIEF@@QEBAAEBV?$vector@EV?$allocator@E@std@@@std@@XZ
?serial_number@x509@PE@LIEF@@QEBA?AV?$vector@EV?$allocator@E@std@@@std@@XZ
?set@CoreAuxv@ELF@LIEF@@QEAA_NW4AUX_TYPE@23@_K@Z
?set@CorePrStatus@ELF@LIEF@@QEAA_NW4REGISTERS@123@_K@Z
?set@Header@OAT@LIEF@@QEAAAEAV123@W4HEADER_KEYS@23@AEBV?$basic_string@DU?$char_traits@D@std@@V?$allocator@D@2@@std@@@Z
?set_bind_offset@DyldInfo@MachO@LIEF@@QEAAXI@Z
?set_bind_size@DyldInfo@MachO@LIEF@@QEAAXI@Z
?set_config@Builder@ELF@LIEF@@QEAAAEAV123@Uconfig_t@123@@Z
?set_export_offset@DyldInfo@MachO@LIEF@@QEAAXI@Z
?set_export_size@DyldInfo@MachO@LIEF@@QEAAXI@Z
?set_exported@Symbol@ELF@LIEF@@QEAAX_N@Z
?set_forward_info@ExportEntry@PE@LIEF@@QEAAXV?$basic_string@DU?$char_traits@D@std@@V?$allocator@D@2@@std@@0@Z
?set_imported@Symbol@ELF@LIEF@@QEAAX_N@Z
?set_lazy_bind_offset@DyldInfo@MachO@LIEF@@QEAAXI@Z
?set_lazy_bind_size@DyldInfo@MachO@LIEF@@QEAAXI@Z
?set_level@logging@LIEF@@YAXW4LOGGING_LEVEL@12@@Z
?set_non_weak_definition@BindingInfo@MachO@LIEF@@QEAAX_N@Z
?set_rebase_offset@DyldInfo@MachO@LIEF@@QEAAXI@Z
?set_rebase_size@DyldInfo@MachO@LIEF@@QEAAXI@Z
?set_resources@Binary@PE@LIEF@@QEAAXAEBVResourceData@23@@Z
?set_resources@Binary@PE@LIEF@@QEAAXAEBVResourceDirectory@23@@Z
?set_static@Field@DEX@LIEF@@AEAAX_N@Z
?set_vdex@Parser@OAT@LIEF@@IEAAXV?$unique_ptr@VFile@VDEX@LIEF@@U?$default_delete@VFile@VDEX@LIEF@@@std@@@std@@@Z
?set_virtual@Method@DEX@LIEF@@AEAAX_N@Z
?set_weak_bind_offset@DyldInfo@MachO@LIEF@@QEAAXI@Z
?set_weak_bind_size@DyldInfo@MachO@LIEF@@QEAAXI@Z
?set_weak_import@BindingInfo@MachO@LIEF@@QEAAX_N@Z
?shift2@GnuHash@ELF@LIEF@@QEBAIXZ
?shift@Binary@MachO@LIEF@@AEAAX_K@Z
?shift_command@Binary@MachO@LIEF@@AEAAX_K0@Z
?shift_dynamic_entries@Binary@ELF@LIEF@@IEAAX_K0@Z
?shift_relocations@Binary@ELF@LIEF@@IEAAX_K0@Z
?shift_sections@Binary@ELF@LIEF@@IEAAX_K0@Z
?shift_segments@Binary@ELF@LIEF@@IEAAX_K0@Z
?shift_symbols@Binary@ELF@LIEF@@IEAAX_K0@Z
?shndx@Symbol@ELF@LIEF@@QEAAXG@Z
?shndx@Symbol@ELF@LIEF@@QEAAXW4SYMBOL_SECTION_INDEX@23@@Z
?shndx@Symbol@ELF@LIEF@@QEBAGXZ
?should_swap@Builder@ELF@LIEF@@IEBA_NXZ
?should_swap@Parser@ELF@LIEF@@IEBA_NXZ
?show_bind_opcodes@DyldInfo@MachO@LIEF@@QEBA?AV?$basic_string@DU?$char_traits@D@std@@V?$allocator@D@2@@std@@XZ
?show_bindings@DyldInfo@MachO@LIEF@@AEBAXAEAV?$basic_ostream@DU?$char_traits@D@std@@@std@@V?$span@$$CBE$0?0@tcb@@_N@Z
?show_export_trie@DyldInfo@MachO@LIEF@@QEBA?AV?$basic_string@DU?$char_traits@D@std@@V?$allocator@D@2@@std@@XZ
?show_lazy_bind_opcodes@DyldInfo@MachO@LIEF@@QEBA?AV?$basic_string@DU?$char_traits@D@std@@V?$allocator@D@2@@std@@XZ
?show_rebases_opcodes@DyldInfo@MachO@LIEF@@QEBA?AV?$basic_string@DU?$char_traits@D@std@@V?$allocator@D@2@@std@@XZ
?show_trie@DyldInfo@MachO@LIEF@@AEBAXAEAV?$basic_ostream@DU?$char_traits@D@std@@@std@@V?$basic_string@DU?$char_traits@D@std@@V?$allocator@D@2@@5@AEAVBinaryStream@3@_K3AEBV65@@Z
?show_weak_bind_opcodes@DyldInfo@MachO@LIEF@@QEBA?AV?$basic_string@DU?$char_traits@D@std@@V?$allocator@D@2@@std@@XZ
?shstrtab_name@Binary@ELF@LIEF@@IEBA?AV?$basic_string@DU?$char_traits@D@std@@V?$allocator@D@2@@std@@XZ
?sid@CorePrPsInfo@ELF@LIEF@@QEAAXH@Z
?sid@CorePrPsInfo@ELF@LIEF@@QEBAHXZ
?sid@CorePrStatus@ELF@LIEF@@QEAAXH@Z
?sid@CorePrStatus@ELF@LIEF@@QEBAHXZ
?sig@MsSpcNestedSignature@PE@LIEF@@QEBAAEBVSignature@23@XZ
?sigcode@CoreSigInfo@ELF@LIEF@@QEAAXH@Z
?sigcode@CoreSigInfo@ELF@LIEF@@QEBAHXZ
?sigerrno@CoreSigInfo@ELF@LIEF@@QEAAXH@Z
?sigerrno@CoreSigInfo@ELF@LIEF@@QEBAHXZ
?sighold@CorePrStatus@ELF@LIEF@@QEAAX_K@Z
?sighold@CorePrStatus@ELF@LIEF@@QEBA_KXZ
?siginfo@CorePrStatus@ELF@LIEF@@QEAAXAEBUsiginfo_t@123@@Z
?siginfo@CorePrStatus@ELF@LIEF@@QEBAAEBUsiginfo_t@123@XZ
?signature@CodeViewPDB@PE@LIEF@@QEAAXI@Z
?signature@CodeViewPDB@PE@LIEF@@QEAAXV?$array@E$0BA@@std@@@Z
?signature@CodeViewPDB@PE@LIEF@@QEBA?AV?$array@E$0BA@@std@@XZ
?signature@Header@DEX@LIEF@@QEBA?AV?$array@E$0BE@@std@@XZ
?signature@Header@PE@LIEF@@QEAAXAEBV?$array@E$03@std@@@Z
?signature@Header@PE@LIEF@@QEBAAEBV?$array@E$03@std@@XZ
?signature@Pogo@PE@LIEF@@QEAAXW4POGO_SIGNATURES@23@@Z
?signature@Pogo@PE@LIEF@@QEBA?AW4POGO_SIGNATURES@23@XZ
?signature@ResourceDialog@PE@LIEF@@QEBAGXZ
?signature@ResourceFixedFileInfo@PE@LIEF@@QEAAXI@Z
?signature@ResourceFixedFileInfo@PE@LIEF@@QEBAIXZ
?signature@x509@PE@LIEF@@QEBA?AV?$vector@EV?$allocator@E@std@@@std@@XZ
?signature_algorithm@x509@PE@LIEF@@QEBA?AV?$basic_string@DU?$char_traits@D@std@@V?$allocator@D@2@@std@@XZ
?signatures@Binary@PE@LIEF@@QEBA?AV?$ref_iterator@AEBV?$vector@VSignature@PE@LIEF@@V?$allocator@VSignature@PE@LIEF@@@std@@@std@@VSignature@PE@LIEF@@V?$_Vector_const_iterator@V?$_Vector_val@U?$_Simple_types@VSignature@PE@LIEF@@@std@@@std@@@2@@3@XZ
?signer@PKCS9CounterSignature@PE@LIEF@@QEBAAEBVSignerInfo@23@XZ
?signers@Signature@PE@LIEF@@QEBA?AV?$ref_iterator@AEBV?$vector@VSignerInfo@PE@LIEF@@V?$allocator@VSignerInfo@PE@LIEF@@@std@@@std@@VSignerInfo@PE@LIEF@@V?$_Vector_const_iterator@V?$_Vector_val@U?$_Simple_types@VSignerInfo@PE@LIEF@@@std@@@std@@@2@@3@XZ
?signo@CoreSigInfo@ELF@LIEF@@QEAAXH@Z
?signo@CoreSigInfo@ELF@LIEF@@QEBAHXZ
?sigpend@CorePrStatus@ELF@LIEF@@QEAAX_K@Z
?sigpend@CorePrStatus@ELF@LIEF@@QEBA_KXZ
?size@DataDirectory@PE@LIEF@@QEAAXI@Z
?size@DataDirectory@PE@LIEF@@QEBAIXZ
?size@DynamicEntryArray@ELF@LIEF@@QEBA_KXZ
?size@FatBinary@MachO@LIEF@@QEBA_KXZ
?size@LoadCommand@MachO@LIEF@@QEAAXI@Z
?size@LoadCommand@MachO@LIEF@@QEBAIXZ
?size@LoadConfiguration@PE@LIEF@@QEBAIXZ
?size@MapItem@DEX@LIEF@@QEBAIXZ
?size@Node@DataHandler@ELF@LIEF@@QEAAX_K@Z
?size@Node@DataHandler@ELF@LIEF@@QEBA_KXZ
?size@Note@ELF@LIEF@@QEBA_KXZ
?size@PogoEntry@PE@LIEF@@QEAAXI@Z
?size@PogoEntry@PE@LIEF@@QEBAIXZ
?size@Relocation@ELF@LIEF@@UEBA_KXZ
?size@Relocation@LIEF@@UEAAX_K@Z
?size@Relocation@LIEF@@UEBA_KXZ
?size@RelocationEntry@PE@LIEF@@UEAAX_K@Z
?size@RelocationEntry@PE@LIEF@@UEBA_KXZ
?size@RelocationObject@MachO@LIEF@@UEAAX_K@Z
?size@RelocationObject@MachO@LIEF@@UEBA_KXZ
?size@ResourceIcon@PE@LIEF@@QEBAIXZ
?size@Section@ELF@LIEF@@UEAAX_K@Z
?size@Section@ELF@LIEF@@UEBA_KXZ
?size@Section@LIEF@@UEAAX_K@Z
?size@Section@LIEF@@UEBA_KXZ
?size@Symbol@LIEF@@UEAAX_K@Z
?size@Symbol@LIEF@@UEBA_KXZ
?sizeof_cmds@Header@MachO@LIEF@@QEAAXI@Z
?sizeof_cmds@Header@MachO@LIEF@@QEBAIXZ
?sizeof_code@OptionalHeader@PE@LIEF@@QEAAXI@Z
?sizeof_code@OptionalHeader@PE@LIEF@@QEBAIXZ
?sizeof_data@Debug@PE@LIEF@@QEAAXI@Z
?sizeof_data@Debug@PE@LIEF@@QEBAIXZ
?sizeof_headers@Binary@PE@LIEF@@QEBAIXZ
?sizeof_headers@OptionalHeader@PE@LIEF@@QEAAXI@Z
?sizeof_headers@OptionalHeader@PE@LIEF@@QEBAIXZ
?sizeof_heap_commit@OptionalHeader@PE@LIEF@@QEAAX_K@Z
?sizeof_heap_commit@OptionalHeader@PE@LIEF@@QEBA_KXZ
?sizeof_heap_reserve@OptionalHeader@PE@LIEF@@QEAAX_K@Z
?sizeof_heap_reserve@OptionalHeader@PE@LIEF@@QEBA_KXZ
?sizeof_image@OptionalHeader@PE@LIEF@@QEAAXI@Z
?sizeof_image@OptionalHeader@PE@LIEF@@QEBAIXZ
?sizeof_initialized_data@OptionalHeader@PE@LIEF@@QEAAXI@Z
?sizeof_initialized_data@OptionalHeader@PE@LIEF@@QEBAIXZ
?sizeof_optional_header@Header@PE@LIEF@@QEAAXG@Z
?sizeof_optional_header@Header@PE@LIEF@@QEBAGXZ
?sizeof_raw_data@Section@PE@LIEF@@QEAAXI@Z
?sizeof_raw_data@Section@PE@LIEF@@QEBAIXZ
?sizeof_stack_commit@OptionalHeader@PE@LIEF@@QEAAX_K@Z
?sizeof_stack_commit@OptionalHeader@PE@LIEF@@QEBA_KXZ
?sizeof_stack_reserve@OptionalHeader@PE@LIEF@@QEAAX_K@Z
?sizeof_stack_reserve@OptionalHeader@PE@LIEF@@QEBA_KXZ
?sizeof_uninitialized_data@OptionalHeader@PE@LIEF@@QEAAXI@Z
?sizeof_uninitialized_data@OptionalHeader@PE@LIEF@@QEBAIXZ
?sizeof_zero_fill@TLS@PE@LIEF@@QEAAXI@Z
?sizeof_zero_fill@TLS@PE@LIEF@@QEBAIXZ
?sort_by_id@ResourceNode@PE@LIEF@@QEAAXXZ
?sort_dynamic_symbols@Builder@ELF@LIEF@@IEAAIXZ
?source_filename@Class@DEX@LIEF@@QEBAAEBV?$basic_string@DU?$char_traits@D@std@@V?$allocator@D@2@@std@@XZ
?source_version@Binary@MachO@LIEF@@QEAAPEAVSourceVersion@23@XZ
?source_version@Binary@MachO@LIEF@@QEBAPEBVSourceVersion@23@XZ
?sp@CorePrStatus@ELF@LIEF@@QEBA_KXZ
?stack_size@MainCommand@MachO@LIEF@@QEAAX_K@Z
?stack_size@MainCommand@MachO@LIEF@@QEBA_KXZ
?start_rva@PogoEntry@PE@LIEF@@QEAAXI@Z
?start_rva@PogoEntry@PE@LIEF@@QEBAIXZ
?state@ThreadCommand@MachO@LIEF@@QEAAAEAV?$vector@EV?$allocator@E@std@@@std@@XZ
?state@ThreadCommand@MachO@LIEF@@QEAAXAEBV?$vector@EV?$allocator@E@std@@@std@@@Z
?state@ThreadCommand@MachO@LIEF@@QEBAAEBV?$vector@EV?$allocator@E@std@@@std@@XZ
?static_dyn_symbols@Binary@ELF@LIEF@@IEBA?AV?$vector@PEAVSymbol@ELF@LIEF@@V?$allocator@PEAVSymbol@ELF@LIEF@@@std@@@std@@XZ
?static_symbols@Binary@ELF@LIEF@@QEAA?AV?$ref_iterator@AEAV?$vector@V?$unique_ptr@VSymbol@ELF@LIEF@@U?$default_delete@VSymbol@ELF@LIEF@@@std@@@std@@V?$allocator@V?$unique_ptr@VSymbol@ELF@LIEF@@U?$default_delete@VSymbol@ELF@LIEF@@@std@@@std@@@2@@std@@PEAVSymbol@ELF@LIEF@@V?$_Vector_iterator@V?$_Vector_val@U?$_Simple_types@V?$unique_ptr@VSymbol@ELF@LIEF@@U?$default_delete@VSymbol@ELF@LIEF@@@std@@@std@@@std@@@std@@@2@@3@XZ
?static_symbols@Binary@ELF@LIEF@@QEBA?AV?$ref_iterator@AEBV?$vector@V?$unique_ptr@VSymbol@ELF@LIEF@@U?$default_delete@VSymbol@ELF@LIEF@@@std@@@std@@V?$allocator@V?$unique_ptr@VSymbol@ELF@LIEF@@U?$default_delete@VSymbol@ELF@LIEF@@@std@@@std@@@2@@std@@PEBVSymbol@ELF@LIEF@@V?$_Vector_const_iterator@V?$_Vector_val@U?$_Simple_types@V?$unique_ptr@VSymbol@ELF@LIEF@@U?$default_delete@VSymbol@ELF@LIEF@@@std@@@std@@@std@@@std@@@2@@3@XZ
?static_symbols_section@Binary@ELF@LIEF@@QEAAPEAVSection@23@XZ
?status@Class@OAT@LIEF@@QEBA?AW4OAT_CLASS_STATUS@23@XZ
?stime@CorePrStatus@ELF@LIEF@@QEAAXUtimeval_t@123@@Z
?stime@CorePrStatus@ELF@LIEF@@QEBA?AUtimeval_t@123@XZ
?storage_class@Symbol@PE@LIEF@@QEBA?AW4SYMBOL_STORAGE_CLASS@23@XZ
?storage_mode@Header@ART@LIEF@@QEBA?AW4STORAGE_MODES@23@XZ
?string_file_info@ResourceVersion@PE@LIEF@@QEAAPEAVResourceStringFileInfo@23@XZ
?string_file_info@ResourceVersion@PE@LIEF@@QEAAXAEBVResourceStringFileInfo@23@@Z
?string_file_info@ResourceVersion@PE@LIEF@@QEBAPEBVResourceStringFileInfo@23@XZ
?string_table@ResourcesManager@PE@LIEF@@QEBA?AV?$ref_iterator@$$CBV?$vector@VResourceStringTable@PE@LIEF@@V?$allocator@VResourceStringTable@PE@LIEF@@@std@@@std@@VResourceStringTable@PE@LIEF@@V?$_Vector_const_iterator@V?$_Vector_val@U?$_Simple_types@VResourceStringTable@PE@LIEF@@@std@@@std@@@2@@3@XZ
?strings@Binary@ELF@LIEF@@QEBA?AV?$vector@V?$basic_string@DU?$char_traits@D@std@@V?$allocator@D@2@@std@@V?$allocator@V?$basic_string@DU?$char_traits@D@std@@V?$allocator@D@2@@std@@@2@@std@@_K@Z
?strings@File@DEX@LIEF@@QEAA?AV?$ref_iterator@AEAV?$vector@V?$unique_ptr@V?$basic_string@DU?$char_traits@D@std@@V?$allocator@D@2@@std@@U?$default_delete@V?$basic_string@DU?$char_traits@D@std@@V?$allocator@D@2@@std@@@2@@std@@V?$allocator@V?$unique_ptr@V?$basic_string@DU?$char_traits@D@std@@V?$allocator@D@2@@std@@U?$default_delete@V?$basic_string@DU?$char_traits@D@std@@V?$allocator@D@2@@std@@@2@@std@@@2@@std@@PEAV?$basic_string@DU?$char_traits@D@std@@V?$allocator@D@2@@2@V?$_Vector_iterator@V?$_Vector_val@U?$_Simple_types@V?$unique_ptr@V?$basic_string@DU?$char_traits@D@std@@V?$allocator@D@2@@std@@U?$default_delete@V?$basic_string@DU?$char_traits@D@std@@V?$allocator@D@2@@std@@@2@@std@@@std@@@std@@@2@@3@XZ
?strings@File@DEX@LIEF@@QEBA?AV?$ref_iterator@AEBV?$vector@V?$unique_ptr@V?$basic_string@DU?$char_traits@D@std@@V?$allocator@D@2@@std@@U?$default_delete@V?$basic_string@DU?$char_traits@D@std@@V?$allocator@D@2@@std@@@2@@std@@V?$allocator@V?$unique_ptr@V?$basic_string@DU?$char_traits@D@std@@V?$allocator@D@2@@std@@U?$default_delete@V?$basic_string@DU?$char_traits@D@std@@V?$allocator@D@2@@std@@@2@@std@@@2@@std@@PEBV?$basic_string@DU?$char_traits@D@std@@V?$allocator@D@2@@2@V?$_Vector_const_iterator@V?$_Vector_val@U?$_Simple_types@V?$unique_ptr@V?$basic_string@DU?$char_traits@D@std@@V?$allocator@D@2@@std@@U?$default_delete@V?$basic_string@DU?$char_traits@D@std@@V?$allocator@D@2@@std@@@2@@std@@@std@@@std@@@2@@3@XZ
?strings@Header@DEX@LIEF@@QEBA?AU?$pair@II@std@@XZ
?strings_offset@SymbolCommand@MachO@LIEF@@QEAAXI@Z
?strings_offset@SymbolCommand@MachO@LIEF@@QEBAIXZ
?strings_size@SymbolCommand@MachO@LIEF@@QEAAXI@Z
?strings_size@SymbolCommand@MachO@LIEF@@QEBAIXZ
?strip@Binary@ELF@LIEF@@QEAAXXZ
?struct_version@ResourceFixedFileInfo@PE@LIEF@@QEAAXI@Z
?struct_version@ResourceFixedFileInfo@PE@LIEF@@QEBAIXZ
?style@ResourceDialog@PE@LIEF@@QEBAIXZ
?style@ResourceDialogItem@PE@LIEF@@QEBAIXZ
?style_list@ResourceDialog@PE@LIEF@@QEBA?AV?$set@W4WINDOW_STYLES@PE@LIEF@@U?$less@W4WINDOW_STYLES@PE@LIEF@@@std@@V?$allocator@W4WINDOW_STYLES@PE@LIEF@@@5@@std@@XZ
?style_list@ResourceDialogItem@PE@LIEF@@QEBA?AV?$set@W4WINDOW_STYLES@PE@LIEF@@U?$less@W4WINDOW_STYLES@PE@LIEF@@@std@@V?$allocator@W4WINDOW_STYLES@PE@LIEF@@@5@@std@@XZ
?sub_framework@Binary@MachO@LIEF@@QEAAPEAVSubFramework@23@XZ
?sub_framework@Binary@MachO@LIEF@@QEBAPEBVSubFramework@23@XZ
?sub_lang@ResourceDialog@PE@LIEF@@QEAAXW4RESOURCE_SUBLANGS@23@@Z
?sub_lang@ResourceDialog@PE@LIEF@@QEBA?AW4RESOURCE_SUBLANGS@23@XZ
?sub_lang@ResourcesManager@PE@LIEF@@SA?AW4RESOURCE_SUBLANGS@23@W4RESOURCE_LANGS@23@_K@Z
?subject@x509@PE@LIEF@@QEBA?AV?$basic_string@DU?$char_traits@D@std@@V?$allocator@D@2@@std@@XZ
?sublang@LangCodeItem@PE@LIEF@@QEAAXW4RESOURCE_SUBLANGS@23@@Z
?sublang@LangCodeItem@PE@LIEF@@QEBA?AW4RESOURCE_SUBLANGS@23@XZ
?sublang@ResourceIcon@PE@LIEF@@QEAAXW4RESOURCE_SUBLANGS@23@@Z
?sublang@ResourceIcon@PE@LIEF@@QEBA?AW4RESOURCE_SUBLANGS@23@XZ
?sublang_from_id@ResourcesManager@PE@LIEF@@SA?AW4RESOURCE_SUBLANGS@23@_K@Z
?subsystem@OptionalHeader@PE@LIEF@@QEAAXW4SUBSYSTEM@23@@Z
?subsystem@OptionalHeader@PE@LIEF@@QEBA?AW4SUBSYSTEM@23@XZ
?swap@BindingInfo@MachO@LIEF@@QEAAXAEAV123@@Z
?swap@DataDirectory@PE@LIEF@@QEAAXAEAV123@@Z
?swap@Debug@PE@LIEF@@QEAAXAEAV123@@Z
?swap@DelayImport@PE@LIEF@@QEAAXAEAV123@@Z
?swap@DyldInfo@MachO@LIEF@@QEAAXAEAV123@@Z
?swap@ExportInfo@MachO@LIEF@@QEAAXAEAV123@@Z
?swap@FilesetCommand@MachO@LIEF@@QEAAXAEAV123@@Z
?swap@Import@PE@LIEF@@QEAAXAEAV123@@Z
?swap@LoadCommand@MachO@LIEF@@QEAAXAEAV123@@Z
?swap@Note@ELF@LIEF@@QEAAXAEAV123@@Z
?swap@Relocation@ELF@LIEF@@QEAAXAEAV123@@Z
?swap@Relocation@LIEF@@QEAAXAEAV12@@Z
?swap@Relocation@MachO@LIEF@@QEAAXAEAV123@@Z
?swap@Relocation@PE@LIEF@@QEAAXAEAV123@@Z
?swap@RelocationEntry@PE@LIEF@@QEAAXAEAV123@@Z
?swap@RelocationObject@MachO@LIEF@@QEAAXAEAV123@@Z
?swap@ResourceData@PE@LIEF@@QEAAXAEAV123@@Z
?swap@ResourceDirectory@PE@LIEF@@QEAAXAEAV123@@Z
?swap@ResourceNode@PE@LIEF@@QEAAXAEAV123@@Z
?swap@RsaInfo@PE@LIEF@@QEAAXAEAV123@@Z
?swap@Section@ELF@LIEF@@QEAAXAEAV123@@Z
?swap@Section@MachO@LIEF@@QEAAXAEAV123@@Z
?swap@Segment@ELF@LIEF@@QEAAXAEAV123@@Z
?swap@SegmentCommand@MachO@LIEF@@QEAAXAEAV123@@Z
?swap@SignerInfo@PE@LIEF@@QEAAXAEAV123@@Z
?swap@Symbol@ELF@LIEF@@QEAAXAEAV123@@Z
?swap@Symbol@LIEF@@QEAAXAEAV12@@Z
?swap@Symbol@MachO@LIEF@@QEAAXAEAV123@@Z
?swap@Symbol@PE@LIEF@@QEAAXAEAV123@@Z
?swap@SymbolVersionDefinition@ELF@LIEF@@QEAAXAEAV123@@Z
?swap@SymbolVersionRequirement@ELF@LIEF@@QEAAXAEAV123@@Z
?swap@TLS@PE@LIEF@@QEAAXAEAV123@@Z
?swap@x509@PE@LIEF@@QEAAXAEAV123@@Z
?switch_array_size@DEX@LIEF@@YA_KPEBE0@Z
?symbol@BindingInfo@MachO@LIEF@@QEAAPEAVSymbol@23@XZ
?symbol@BindingInfo@MachO@LIEF@@QEBAPEBVSymbol@23@XZ
?symbol@ExportInfo@MachO@LIEF@@QEAAPEAVSymbol@23@XZ
?symbol@ExportInfo@MachO@LIEF@@QEBAPEBVSymbol@23@XZ
?symbol@Relocation@ELF@LIEF@@QEAAPEAVSymbol@23@XZ
?symbol@Relocation@ELF@LIEF@@QEAAXPEAVSymbol@23@@Z
?symbol@Relocation@ELF@LIEF@@QEBAPEBVSymbol@23@XZ
?symbol@Relocation@MachO@LIEF@@QEAAPEAVSymbol@23@XZ
?symbol@Relocation@MachO@LIEF@@QEBAPEBVSymbol@23@XZ
?symbol_command@Binary@MachO@LIEF@@QEAAPEAVSymbolCommand@23@XZ
?symbol_command@Binary@MachO@LIEF@@QEBAPEBVSymbolCommand@23@XZ
?symbol_index@GnuHash@ELF@LIEF@@QEBAIXZ
?symbol_offset@SymbolCommand@MachO@LIEF@@QEAAXI@Z
?symbol_offset@SymbolCommand@MachO@LIEF@@QEBAIXZ
?symbol_version@Symbol@ELF@LIEF@@QEAAPEAVSymbolVersion@23@XZ
?symbol_version@Symbol@ELF@LIEF@@QEBAPEBVSymbolVersion@23@XZ
?symbol_version_auxiliary@SymbolVersion@ELF@LIEF@@QEAAPEAVSymbolVersionAux@23@XZ
?symbol_version_auxiliary@SymbolVersion@ELF@LIEF@@QEAAXAEAVSymbolVersionAuxRequirement@23@@Z
?symbol_version_auxiliary@SymbolVersion@ELF@LIEF@@QEBAPEBVSymbolVersionAux@23@XZ
?symbols@Binary@ELF@LIEF@@QEAA?AV?$ref_iterator@V?$vector@PEAVSymbol@ELF@LIEF@@V?$allocator@PEAVSymbol@ELF@LIEF@@@std@@@std@@PEAVSymbol@ELF@LIEF@@V?$_Vector_iterator@V?$_Vector_val@U?$_Simple_types@PEAVSymbol@ELF@LIEF@@@std@@@std@@@2@@3@XZ
?symbols@Binary@ELF@LIEF@@QEBA?AV?$ref_iterator@$$CBV?$vector@PEAVSymbol@ELF@LIEF@@V?$allocator@PEAVSymbol@ELF@LIEF@@@std@@@std@@PEAVSymbol@ELF@LIEF@@V?$_Vector_const_iterator@V?$_Vector_val@U?$_Simple_types@PEAVSymbol@ELF@LIEF@@@std@@@std@@@2@@3@XZ
?symbols@Binary@LIEF@@QEAA?AV?$ref_iterator@V?$vector@PEAVSymbol@LIEF@@V?$allocator@PEAVSymbol@LIEF@@@std@@@std@@PEAVSymbol@LIEF@@V?$_Vector_iterator@V?$_Vector_val@U?$_Simple_types@PEAVSymbol@LIEF@@@std@@@std@@@2@@2@XZ
?symbols@Binary@LIEF@@QEBA?AV?$ref_iterator@$$CBV?$vector@PEAVSymbol@LIEF@@V?$allocator@PEAVSymbol@LIEF@@@std@@@std@@PEAVSymbol@LIEF@@V?$_Vector_const_iterator@V?$_Vector_val@U?$_Simple_types@PEAVSymbol@LIEF@@@std@@@std@@@2@@2@XZ
?symbols@Binary@MachO@LIEF@@QEAA?AV?$ref_iterator@AEAV?$vector@V?$unique_ptr@VSymbol@MachO@LIEF@@U?$default_delete@VSymbol@MachO@LIEF@@@std@@@std@@V?$allocator@V?$unique_ptr@VSymbol@MachO@LIEF@@U?$default_delete@VSymbol@MachO@LIEF@@@std@@@std@@@2@@std@@PEAVSymbol@MachO@LIEF@@V?$_Vector_iterator@V?$_Vector_val@U?$_Simple_types@V?$unique_ptr@VSymbol@MachO@LIEF@@U?$default_delete@VSymbol@MachO@LIEF@@@std@@@std@@@std@@@std@@@2@@3@XZ
?symbols@Binary@MachO@LIEF@@QEBA?AV?$ref_iterator@AEBV?$vector@V?$unique_ptr@VSymbol@MachO@LIEF@@U?$default_delete@VSymbol@MachO@LIEF@@@std@@@std@@V?$allocator@V?$unique_ptr@VSymbol@MachO@LIEF@@U?$default_delete@VSymbol@MachO@LIEF@@@std@@@std@@@2@@std@@PEBVSymbol@MachO@LIEF@@V?$_Vector_const_iterator@V?$_Vector_val@U?$_Simple_types@V?$unique_ptr@VSymbol@MachO@LIEF@@U?$default_delete@VSymbol@MachO@LIEF@@@std@@@std@@@std@@@std@@@2@@3@XZ
?symbols@Binary@PE@LIEF@@QEAAAEAV?$vector@VSymbol@PE@LIEF@@V?$allocator@VSymbol@PE@LIEF@@@std@@@std@@XZ
?symbols@Binary@PE@LIEF@@QEBAAEBV?$vector@VSymbol@PE@LIEF@@V?$allocator@VSymbol@PE@LIEF@@@std@@@std@@XZ
?symbols_aux@SymbolVersionDefinition@ELF@LIEF@@QEAA?AV?$ref_iterator@AEAV?$vector@V?$unique_ptr@VSymbolVersionAux@ELF@LIEF@@U?$default_delete@VSymbolVersionAux@ELF@LIEF@@@std@@@std@@V?$allocator@V?$unique_ptr@VSymbolVersionAux@ELF@LIEF@@U?$default_delete@VSymbolVersionAux@ELF@LIEF@@@std@@@std@@@2@@std@@PEAVSymbolVersionAux@ELF@LIEF@@V?$_Vector_iterator@V?$_Vector_val@U?$_Simple_types@V?$unique_ptr@VSymbolVersionAux@ELF@LIEF@@U?$default_delete@VSymbolVersionAux@ELF@LIEF@@@std@@@std@@@std@@@std@@@2@@3@XZ
?symbols_aux@SymbolVersionDefinition@ELF@LIEF@@QEBA?AV?$ref_iterator@AEBV?$vector@V?$unique_ptr@VSymbolVersionAux@ELF@LIEF@@U?$default_delete@VSymbolVersionAux@ELF@LIEF@@@std@@@std@@V?$allocator@V?$unique_ptr@VSymbolVersionAux@ELF@LIEF@@U?$default_delete@VSymbolVersionAux@ELF@LIEF@@@std@@@std@@@2@@std@@PEBVSymbolVersionAux@ELF@LIEF@@V?$_Vector_const_iterator@V?$_Vector_val@U?$_Simple_types@V?$unique_ptr@VSymbolVersionAux@ELF@LIEF@@U?$default_delete@VSymbolVersionAux@ELF@LIEF@@@std@@@std@@@std@@@std@@@2@@3@XZ
?symbols_version@Binary@ELF@LIEF@@QEAA?AV?$ref_iterator@AEAV?$vector@V?$unique_ptr@VSymbolVersion@ELF@LIEF@@U?$default_delete@VSymbolVersion@ELF@LIEF@@@std@@@std@@V?$allocator@V?$unique_ptr@VSymbolVersion@ELF@LIEF@@U?$default_delete@VSymbolVersion@ELF@LIEF@@@std@@@std@@@2@@std@@PEAVSymbolVersion@ELF@LIEF@@V?$_Vector_iterator@V?$_Vector_val@U?$_Simple_types@V?$unique_ptr@VSymbolVersion@ELF@LIEF@@U?$default_delete@VSymbolVersion@ELF@LIEF@@@std@@@std@@@std@@@std@@@2@@3@XZ
?symbols_version@Binary@ELF@LIEF@@QEBA?AV?$ref_iterator@AEBV?$vector@V?$unique_ptr@VSymbolVersion@ELF@LIEF@@U?$default_delete@VSymbolVersion@ELF@LIEF@@@std@@@std@@V?$allocator@V?$unique_ptr@VSymbolVersion@ELF@LIEF@@U?$default_delete@VSymbolVersion@ELF@LIEF@@@std@@@std@@@2@@std@@PEBVSymbolVersion@ELF@LIEF@@V?$_Vector_const_iterator@V?$_Vector_val@U?$_Simple_types@V?$unique_ptr@VSymbolVersion@ELF@LIEF@@U?$default_delete@VSymbolVersion@ELF@LIEF@@@std@@@std@@@std@@@std@@@2@@3@XZ
?symbols_version_definition@Binary@ELF@LIEF@@QEAA?AV?$ref_iterator@AEAV?$vector@V?$unique_ptr@VSymbolVersionDefinition@ELF@LIEF@@U?$default_delete@VSymbolVersionDefinition@ELF@LIEF@@@std@@@std@@V?$allocator@V?$unique_ptr@VSymbolVersionDefinition@ELF@LIEF@@U?$default_delete@VSymbolVersionDefinition@ELF@LIEF@@@std@@@std@@@2@@std@@PEAVSymbolVersionDefinition@ELF@LIEF@@V?$_Vector_iterator@V?$_Vector_val@U?$_Simple_types@V?$unique_ptr@VSymbolVersionDefinition@ELF@LIEF@@U?$default_delete@VSymbolVersionDefinition@ELF@LIEF@@@std@@@std@@@std@@@std@@@2@@3@XZ
?symbols_version_definition@Binary@ELF@LIEF@@QEBA?AV?$ref_iterator@AEBV?$vector@V?$unique_ptr@VSymbolVersionDefinition@ELF@LIEF@@U?$default_delete@VSymbolVersionDefinition@ELF@LIEF@@@std@@@std@@V?$allocator@V?$unique_ptr@VSymbolVersionDefinition@ELF@LIEF@@U?$default_delete@VSymbolVersionDefinition@ELF@LIEF@@@std@@@std@@@2@@std@@PEBVSymbolVersionDefinition@ELF@LIEF@@V?$_Vector_const_iterator@V?$_Vector_val@U?$_Simple_types@V?$unique_ptr@VSymbolVersionDefinition@ELF@LIEF@@U?$default_delete@VSymbolVersionDefinition@ELF@LIEF@@@std@@@std@@@std@@@std@@@2@@3@XZ
?symbols_version_requirement@Binary@ELF@LIEF@@QEAA?AV?$ref_iterator@AEAV?$vector@V?$unique_ptr@VSymbolVersionRequirement@ELF@LIEF@@U?$default_delete@VSymbolVersionRequirement@ELF@LIEF@@@std@@@std@@V?$allocator@V?$unique_ptr@VSymbolVersionRequirement@ELF@LIEF@@U?$default_delete@VSymbolVersionRequirement@ELF@LIEF@@@std@@@std@@@2@@std@@PEAVSymbolVersionRequirement@ELF@LIEF@@V?$_Vector_iterator@V?$_Vector_val@U?$_Simple_types@V?$unique_ptr@VSymbolVersionRequirement@ELF@LIEF@@U?$default_delete@VSymbolVersionRequirement@ELF@LIEF@@@std@@@std@@@std@@@std@@@2@@3@XZ
?symbols_version_requirement@Binary@ELF@LIEF@@QEBA?AV?$ref_iterator@AEBV?$vector@V?$unique_ptr@VSymbolVersionRequirement@ELF@LIEF@@U?$default_delete@VSymbolVersionRequirement@ELF@LIEF@@@std@@@std@@V?$allocator@V?$unique_ptr@VSymbolVersionRequirement@ELF@LIEF@@U?$default_delete@VSymbolVersionRequirement@ELF@LIEF@@@std@@@std@@@2@@std@@PEBVSymbolVersionRequirement@ELF@LIEF@@V?$_Vector_const_iterator@V?$_Vector_val@U?$_Simple_types@V?$unique_ptr@VSymbolVersionRequirement@ELF@LIEF@@U?$default_delete@VSymbolVersionRequirement@ELF@LIEF@@@std@@@std@@@std@@@std@@@2@@3@XZ
?sysv_hash@Binary@ELF@LIEF@@QEBAPEBVSysvHash@23@XZ
?tag@DynamicEntry@ELF@LIEF@@QEAAXW4DYNAMIC_TAGS@23@@Z
?tag@DynamicEntry@ELF@LIEF@@QEBA?AW4DYNAMIC_TAGS@23@XZ
?take@FatBinary@MachO@LIEF@@QEAA?AV?$unique_ptr@VBinary@MachO@LIEF@@U?$default_delete@VBinary@MachO@LIEF@@@std@@@std@@W4CPU_TYPES@23@@Z
?take@FatBinary@MachO@LIEF@@QEAA?AV?$unique_ptr@VBinary@MachO@LIEF@@U?$default_delete@VBinary@MachO@LIEF@@@std@@@std@@_K@Z
?text_section@Binary@ELF@LIEF@@QEAAPEAVSection@23@XZ
?thread_command@Binary@MachO@LIEF@@QEAAPEAVThreadCommand@23@XZ
?thread_command@Binary@MachO@LIEF@@QEBAPEBVThreadCommand@23@XZ
?time@PKCS9SigningTime@PE@LIEF@@QEBAAEBV?$array@H$05@std@@XZ
?time_date_stamp@Header@PE@LIEF@@QEAAXI@Z
?time_date_stamp@Header@PE@LIEF@@QEBAIXZ
?time_date_stamp@ResourceDirectory@PE@LIEF@@QEAAXI@Z
?time_date_stamp@ResourceDirectory@PE@LIEF@@QEBAIXZ
?time_is_future@x509@PE@LIEF@@SA_NAEBV?$array@H$05@std@@@Z
?time_is_past@x509@PE@LIEF@@SA_NAEBV?$array@H$05@std@@@Z
?timedatestamp@Import@PE@LIEF@@QEBAIXZ
?timedatestamp@LoadConfiguration@PE@LIEF@@QEAAXI@Z
?timedatestamp@LoadConfiguration@PE@LIEF@@QEBAIXZ
?timestamp@Debug@PE@LIEF@@QEAAXI@Z
?timestamp@Debug@PE@LIEF@@QEBAIXZ
?timestamp@DelayImport@PE@LIEF@@QEAAXI@Z
?timestamp@DelayImport@PE@LIEF@@QEBAIXZ
?timestamp@DylibCommand@MachO@LIEF@@QEAAXI@Z
?timestamp@DylibCommand@MachO@LIEF@@QEBAIXZ
?timestamp@Export@PE@LIEF@@QEAAXI@Z
?timestamp@Export@PE@LIEF@@QEBAIXZ
?title@ResourceDialog@PE@LIEF@@QEBAAEBV?$basic_string@_SU?$char_traits@_S@std@@V?$allocator@_S@2@@std@@XZ
?title@ResourceDialogItem@PE@LIEF@@QEBAAEBV?$basic_string@_SU?$char_traits@_S@std@@V?$allocator@_S@2@@std@@XZ
?tls@Binary@PE@LIEF@@QEAAAEAVTLS@23@XZ
?tls@Binary@PE@LIEF@@QEAAXAEBVTLS@23@@Z
?tls@Binary@PE@LIEF@@QEBAAEBVTLS@23@XZ
?to_json@ART@LIEF@@YA?AV?$basic_string@DU?$char_traits@D@std@@V?$allocator@D@2@@std@@AEBVObject@2@@Z
?to_json@DEX@LIEF@@YA?AV?$basic_string@DU?$char_traits@D@std@@V?$allocator@D@2@@std@@AEBVObject@2@@Z
?to_json@LIEF@@YA?AV?$basic_string@DU?$char_traits@D@std@@V?$allocator@D@2@@std@@AEBVObject@1@@Z
?to_json@MachO@LIEF@@YA?AV?$basic_string@DU?$char_traits@D@std@@V?$allocator@D@2@@std@@AEBVObject@2@@Z
?to_json@OAT@LIEF@@YA?AV?$basic_string@DU?$char_traits@D@std@@V?$allocator@D@2@@std@@AEBVObject@2@@Z
?to_json@PE@LIEF@@YA?AV?$basic_string@DU?$char_traits@D@std@@V?$allocator@D@2@@std@@AEBVObject@2@@Z
?to_json@VDEX@LIEF@@YA?AV?$basic_string@DU?$char_traits@D@std@@V?$allocator@D@2@@std@@AEBVObject@2@@Z
?to_json_from_abstract@LIEF@@YA?AV?$basic_string@DU?$char_traits@D@std@@V?$allocator@D@2@@std@@AEBVObject@1@@Z
?to_string@ART@LIEF@@YAPEBDW4IMAGE_METHODS@ART_17@12@@Z
?to_string@ART@LIEF@@YAPEBDW4IMAGE_METHODS@ART_44@12@@Z
?to_string@ART@LIEF@@YAPEBDW4IMAGE_ROOTS@ART_17@12@@Z
?to_string@ART@LIEF@@YAPEBDW4IMAGE_ROOTS@ART_44@12@@Z
?to_string@ART@LIEF@@YAPEBDW4IMAGE_SECTIONS@ART_17@12@@Z
?to_string@ART@LIEF@@YAPEBDW4IMAGE_SECTIONS@ART_29@12@@Z
?to_string@ART@LIEF@@YAPEBDW4IMAGE_SECTIONS@ART_30@12@@Z
?to_string@ART@LIEF@@YAPEBDW4STORAGE_MODES@12@@Z
?to_string@Android@LIEF@@YAPEBDW4ANDROID_VERSIONS@12@@Z
?to_string@DEX@LIEF@@YAPEBDW4ACCESS_FLAGS@12@@Z
?to_string@DEX@LIEF@@YAPEBDW4PRIMITIVES@Type@12@@Z
?to_string@DEX@LIEF@@YAPEBDW4TYPES@MapItem@12@@Z
?to_string@DEX@LIEF@@YAPEBDW4TYPES@Type@12@@Z
?to_string@ELF@LIEF@@YAPEBDW4ARCH@12@@Z
?to_string@ELF@LIEF@@YAPEBDW4ARM_EFLAGS@12@@Z
?to_string@ELF@LIEF@@YAPEBDW4AUX_TYPE@12@@Z
?to_string@ELF@LIEF@@YAPEBDW4DYNAMIC_FLAGS@12@@Z
?to_string@ELF@LIEF@@YAPEBDW4DYNAMIC_FLAGS_1@12@@Z
?to_string@ELF@LIEF@@YAPEBDW4DYNAMIC_TAGS@12@@Z
?to_string@ELF@LIEF@@YAPEBDW4DYNSYM_COUNT_METHODS@12@@Z
?to_string@ELF@LIEF@@YAPEBDW4ELF_CLASS@12@@Z
?to_string@ELF@LIEF@@YAPEBDW4ELF_DATA@12@@Z
?to_string@ELF@LIEF@@YAPEBDW4ELF_SECTION_FLAGS@12@@Z
?to_string@ELF@LIEF@@YAPEBDW4ELF_SECTION_TYPES@12@@Z
?to_string@ELF@LIEF@@YAPEBDW4ELF_SEGMENT_FLAGS@12@@Z
?to_string@ELF@LIEF@@YAPEBDW4ELF_SYMBOL_TYPES@12@@Z
?to_string@ELF@LIEF@@YAPEBDW4ELF_SYMBOL_VISIBILITY@12@@Z
?to_string@ELF@LIEF@@YAPEBDW4E_TYPE@12@@Z
?to_string@ELF@LIEF@@YAPEBDW4HEXAGON_EFLAGS@12@@Z
?to_string@ELF@LIEF@@YAPEBDW4IDENTITY@12@@Z
?to_string@ELF@LIEF@@YAPEBDW4MIPS_EFLAGS@12@@Z
?to_string@ELF@LIEF@@YAPEBDW4NOTE_ABIS@12@@Z
?to_string@ELF@LIEF@@YAPEBDW4NOTE_TYPES@12@@Z
?to_string@ELF@LIEF@@YAPEBDW4NOTE_TYPES_CORE@12@@Z
?to_string@ELF@LIEF@@YAPEBDW4OS_ABI@12@@Z
?to_string@ELF@LIEF@@YAPEBDW4PPC64_EFLAGS@12@@Z
?to_string@ELF@LIEF@@YAPEBDW4REGISTERS@CorePrStatus@12@@Z
?to_string@ELF@LIEF@@YAPEBDW4RELOCATION_PURPOSES@12@@Z
?to_string@ELF@LIEF@@YAPEBDW4RELOC_AARCH64@12@@Z
?to_string@ELF@LIEF@@YAPEBDW4RELOC_ARM@12@@Z
?to_string@ELF@LIEF@@YAPEBDW4RELOC_MIPS@12@@Z
?to_string@ELF@LIEF@@YAPEBDW4RELOC_POWERPC32@12@@Z
?to_string@ELF@LIEF@@YAPEBDW4RELOC_POWERPC64@12@@Z
?to_string@ELF@LIEF@@YAPEBDW4RELOC_i386@12@@Z
?to_string@ELF@LIEF@@YAPEBDW4RELOC_x86_64@12@@Z
?to_string@ELF@LIEF@@YAPEBDW4SEGMENT_TYPES@12@@Z
?to_string@ELF@LIEF@@YAPEBDW4SYMBOL_BINDINGS@12@@Z
?to_string@ELF@LIEF@@YAPEBDW4SYMBOL_SECTION_INDEX@12@@Z
?to_string@ELF@LIEF@@YAPEBDW4VERSION@12@@Z
?to_string@LIEF@@YAPEBDW4ARCHITECTURES@1@@Z
?to_string@LIEF@@YAPEBDW4ENDIANNESS@1@@Z
?to_string@LIEF@@YAPEBDW4EXE_FORMATS@1@@Z
?to_string@LIEF@@YAPEBDW4FLAGS@Function@1@@Z
?to_string@LIEF@@YAPEBDW4MODES@1@@Z
?to_string@LIEF@@YAPEBDW4OBJECT_TYPES@1@@Z
?to_string@LIEF@@YAPEBDW4VA_TYPES@Binary@1@@Z
?to_string@MachO@LIEF@@YAPEBDW4ARM64_RELOCATION@12@@Z
?to_string@MachO@LIEF@@YAPEBDW4ARM_RELOCATION@12@@Z
?to_string@MachO@LIEF@@YAPEBDW4BINDING_CLASS@12@@Z
?to_string@MachO@LIEF@@YAPEBDW4BIND_OPCODES@12@@Z
?to_string@MachO@LIEF@@YAPEBDW4BIND_SPECIAL_DYLIB@12@@Z
?to_string@MachO@LIEF@@YAPEBDW4BIND_SUBOPCODE_THREADED@12@@Z
?to_string@MachO@LIEF@@YAPEBDW4BIND_TYPES@12@@Z
?to_string@MachO@LIEF@@YAPEBDW4CPU_TYPES@12@@Z
?to_string@MachO@LIEF@@YAPEBDW4EXPORT_SYMBOL_FLAGS@12@@Z
?to_string@MachO@LIEF@@YAPEBDW4EXPORT_SYMBOL_KINDS@12@@Z
?to_string@MachO@LIEF@@YAPEBDW4FILE_TYPES@12@@Z
?to_string@MachO@LIEF@@YAPEBDW4HEADER_FLAGS@12@@Z
?to_string@MachO@LIEF@@YAPEBDW4LOAD_COMMAND_TYPES@12@@Z
?to_string@MachO@LIEF@@YAPEBDW4MACHO_SECTION_FLAGS@12@@Z
?to_string@MachO@LIEF@@YAPEBDW4MACHO_SECTION_TYPES@12@@Z
?to_string@MachO@LIEF@@YAPEBDW4MACHO_SYMBOL_TYPES@12@@Z
?to_string@MachO@LIEF@@YAPEBDW4MACHO_TYPES@12@@Z
?to_string@MachO@LIEF@@YAPEBDW4N_LIST_TYPES@12@@Z
?to_string@MachO@LIEF@@YAPEBDW4PLATFORMS@BuildVersion@12@@Z
?to_string@MachO@LIEF@@YAPEBDW4PPC_RELOCATION@12@@Z
?to_string@MachO@LIEF@@YAPEBDW4REBASE_OPCODES@12@@Z
?to_string@MachO@LIEF@@YAPEBDW4REBASE_TYPES@12@@Z
?to_string@MachO@LIEF@@YAPEBDW4RELOCATION_ORIGINS@12@@Z
?to_string@MachO@LIEF@@YAPEBDW4SYMBOL_DESCRIPTIONS@12@@Z
?to_string@MachO@LIEF@@YAPEBDW4SYMBOL_ORIGINS@12@@Z
?to_string@MachO@LIEF@@YAPEBDW4TOOLS@BuildToolVersion@12@@Z
?to_string@MachO@LIEF@@YAPEBDW4TYPES@DataCodeEntry@12@@Z
?to_string@MachO@LIEF@@YAPEBDW4VM_PROTECTIONS@12@@Z
?to_string@MachO@LIEF@@YAPEBDW4X86_64_RELOCATION@12@@Z
?to_string@MachO@LIEF@@YAPEBDW4X86_RELOCATION@12@@Z
?to_string@OAT@LIEF@@YAPEBDW4HEADER_KEYS@12@@Z
?to_string@OAT@LIEF@@YAPEBDW4INSTRUCTION_SETS@12@@Z
?to_string@OAT@LIEF@@YAPEBDW4OAT_CLASS_STATUS@12@@Z
?to_string@OAT@LIEF@@YAPEBDW4OAT_CLASS_TYPES@12@@Z
?to_string@PE@LIEF@@YAPEBDW4ACCELERATOR_FLAGS@12@@Z
?to_string@PE@LIEF@@YAPEBDW4ACCELERATOR_VK_CODES@12@@Z
?to_string@PE@LIEF@@YAPEBDW4ALGORITHMS@12@@Z
?to_string@PE@LIEF@@YAPEBDW4CODE_PAGES@12@@Z
?to_string@PE@LIEF@@YAPEBDW4CODE_VIEW_SIGNATURES@12@@Z
?to_string@PE@LIEF@@YAPEBDW4DATA_DIRECTORY@12@@Z
?to_string@PE@LIEF@@YAPEBDW4DEBUG_TYPES@12@@Z
?to_string@PE@LIEF@@YAPEBDW4DIALOG_BOX_STYLES@12@@Z
?to_string@PE@LIEF@@YAPEBDW4DLL_CHARACTERISTICS@12@@Z
?to_string@PE@LIEF@@YAPEBDW4EXTENDED_WINDOW_STYLES@12@@Z
?to_string@PE@LIEF@@YAPEBDW4FIXED_VERSION_FILE_FLAGS@12@@Z
?to_string@PE@LIEF@@YAPEBDW4FIXED_VERSION_FILE_SUB_TYPES@12@@Z
?to_string@PE@LIEF@@YAPEBDW4FIXED_VERSION_FILE_TYPES@12@@Z
?to_string@PE@LIEF@@YAPEBDW4FIXED_VERSION_OS@12@@Z
?to_string@PE@LIEF@@YAPEBDW4GUARD_CF_FLAGS@12@@Z
?to_string@PE@LIEF@@YAPEBDW4HEADER_CHARACTERISTICS@12@@Z
?to_string@PE@LIEF@@YAPEBDW4MACHINE_TYPES@12@@Z
?to_string@PE@LIEF@@YAPEBDW4PE_SECTION_TYPES@12@@Z
?to_string@PE@LIEF@@YAPEBDW4PE_TYPE@12@@Z
?to_string@PE@LIEF@@YAPEBDW4POGO_SIGNATURES@12@@Z
?to_string@PE@LIEF@@YAPEBDW4RELOCATIONS_AMD64@12@@Z
?to_string@PE@LIEF@@YAPEBDW4RELOCATIONS_ARM@12@@Z
?to_string@PE@LIEF@@YAPEBDW4RELOCATIONS_BASE_TYPES@12@@Z
?to_string@PE@LIEF@@YAPEBDW4RELOCATIONS_I386@12@@Z
?to_string@PE@LIEF@@YAPEBDW4RESOURCE_LANGS@12@@Z
?to_string@PE@LIEF@@YAPEBDW4RESOURCE_SUBLANGS@12@@Z
?to_string@PE@LIEF@@YAPEBDW4RESOURCE_TYPES@12@@Z
?to_string@PE@LIEF@@YAPEBDW4SECTION_CHARACTERISTICS@12@@Z
?to_string@PE@LIEF@@YAPEBDW4SIG_ATTRIBUTE_TYPES@12@@Z
?to_string@PE@LIEF@@YAPEBDW4SUBSYSTEM@12@@Z
?to_string@PE@LIEF@@YAPEBDW4SYMBOL_BASE_TYPES@12@@Z
?to_string@PE@LIEF@@YAPEBDW4SYMBOL_COMPLEX_TYPES@12@@Z
?to_string@PE@LIEF@@YAPEBDW4SYMBOL_SECTION_NUMBER@12@@Z
?to_string@PE@LIEF@@YAPEBDW4SYMBOL_STORAGE_CLASS@12@@Z
?to_string@PE@LIEF@@YAPEBDW4WINDOW_STYLES@12@@Z
?to_string@PE@LIEF@@YAPEBDW4WIN_VERSION@12@@Z
?to_string@logging@LIEF@@YAPEBDW4LOGGING_LEVEL@12@@Z
?toc_offset@DynamicSymbolCommand@MachO@LIEF@@QEAAXI@Z
?toc_offset@DynamicSymbolCommand@MachO@LIEF@@QEBAIXZ
?tool@BuildToolVersion@MachO@LIEF@@QEBA?AW4TOOLS@123@XZ
?tools@BuildVersion@MachO@LIEF@@QEBA?AV?$vector@VBuildToolVersion@MachO@LIEF@@V?$allocator@VBuildToolVersion@MachO@LIEF@@@std@@@std@@XZ
?tor_functions@Binary@ELF@LIEF@@IEBA?AV?$vector@VFunction@LIEF@@V?$allocator@VFunction@LIEF@@@std@@@std@@W4DYNAMIC_TAGS@23@@Z
?translations@ResourceVarFileInfo@PE@LIEF@@QEAAAEAV?$vector@IV?$allocator@I@std@@@std@@XZ
?translations@ResourceVarFileInfo@PE@LIEF@@QEAAXAEBV?$vector@IV?$allocator@I@std@@@std@@@Z
?translations@ResourceVarFileInfo@PE@LIEF@@QEBAAEBV?$vector@IV?$allocator@I@std@@@std@@XZ
?type@Attribute@PE@LIEF@@UEBA?AW4SIG_ATTRIBUTE_TYPES@23@XZ
?type@Binary@ELF@LIEF@@QEBA?AW4ELF_CLASS@23@XZ
?type@Binary@PE@LIEF@@QEBA?AW4PE_TYPE@23@XZ
?type@Class@OAT@LIEF@@QEBA?AW4OAT_CLASS_TYPES@23@XZ
?type@DataCodeEntry@MachO@LIEF@@QEAAXW4TYPES@123@@Z
?type@DataCodeEntry@MachO@LIEF@@QEBA?AW4TYPES@123@XZ
?type@DataDirectory@PE@LIEF@@QEBA?AW4DATA_DIRECTORY@23@XZ
?type@Debug@PE@LIEF@@QEAAXW4DEBUG_TYPES@23@@Z
?type@Debug@PE@LIEF@@QEBA?AW4DEBUG_TYPES@23@XZ
?type@Field@DEX@LIEF@@QEAAPEAVType@23@XZ
?type@Field@DEX@LIEF@@QEBAPEBVType@23@XZ
?type@LangCodeItem@PE@LIEF@@QEAAXG@Z
?type@LangCodeItem@PE@LIEF@@QEBAGXZ
?type@MapItem@DEX@LIEF@@QEBA?AW4TYPES@123@XZ
?type@Node@DataHandler@ELF@LIEF@@QEAAXW4Type@1234@@Z
?type@Node@DataHandler@ELF@LIEF@@QEBA?AW4Type@1234@XZ
?type@Note@ELF@LIEF@@QEAAXW4NOTE_TYPES@23@@Z
?type@Note@ELF@LIEF@@QEBA?AW4NOTE_TYPES@23@XZ
?type@Relocation@ELF@LIEF@@QEAAXI@Z
?type@Relocation@ELF@LIEF@@QEBAIXZ
?type@Relocation@MachO@LIEF@@UEAAXE@Z
?type@Relocation@MachO@LIEF@@UEBAEXZ
?type@RelocationEntry@PE@LIEF@@QEAAXW4RELOCATIONS_BASE_TYPES@23@@Z
?type@RelocationEntry@PE@LIEF@@QEBA?AW4RELOCATIONS_BASE_TYPES@23@XZ
?type@ResourceStringFileInfo@PE@LIEF@@QEAAXG@Z
?type@ResourceStringFileInfo@PE@LIEF@@QEBAGXZ
?type@ResourceVarFileInfo@PE@LIEF@@QEAAXG@Z
?type@ResourceVarFileInfo@PE@LIEF@@QEBAGXZ
?type@ResourceVersion@PE@LIEF@@QEAAXG@Z
?type@ResourceVersion@PE@LIEF@@QEBAGXZ
?type@Section@ELF@LIEF@@QEAAXW4ELF_SECTION_TYPES@23@@Z
?type@Section@ELF@LIEF@@QEBA?AW4ELF_SECTION_TYPES@23@XZ
?type@Section@MachO@LIEF@@QEAAXW4MACHO_SECTION_TYPES@23@@Z
?type@Section@MachO@LIEF@@QEBA?AW4MACHO_SECTION_TYPES@23@XZ
?type@Section@PE@LIEF@@QEAAXW4PE_SECTION_TYPES@23@@Z
?type@Segment@ELF@LIEF@@QEAAXW4SEGMENT_TYPES@23@@Z
?type@Segment@ELF@LIEF@@QEBA?AW4SEGMENT_TYPES@23@XZ
?type@Symbol@ELF@LIEF@@QEAAXW4ELF_SYMBOL_TYPES@23@@Z
?type@Symbol@ELF@LIEF@@QEBA?AW4ELF_SYMBOL_TYPES@23@XZ
?type@Symbol@MachO@LIEF@@QEAAXE@Z
?type@Symbol@MachO@LIEF@@QEBAEXZ
?type@Symbol@PE@LIEF@@QEBAGXZ
?type@Type@DEX@LIEF@@QEBA?AW4TYPES@123@XZ
?type_core@Note@ELF@LIEF@@QEAAXW4NOTE_TYPES_CORE@23@@Z
?type_core@Note@ELF@LIEF@@QEBA?AW4NOTE_TYPES_CORE@23@XZ
?typeface@ResourceDialog@PE@LIEF@@QEBAAEBV?$basic_string@_SU?$char_traits@_S@std@@V?$allocator@_S@2@@std@@XZ
?types@File@DEX@LIEF@@QEAA?AV?$ref_iterator@AEAV?$vector@V?$unique_ptr@VType@DEX@LIEF@@U?$default_delete@VType@DEX@LIEF@@@std@@@std@@V?$allocator@V?$unique_ptr@VType@DEX@LIEF@@U?$default_delete@VType@DEX@LIEF@@@std@@@std@@@2@@std@@PEAVType@DEX@LIEF@@V?$_Vector_iterator@V?$_Vector_val@U?$_Simple_types@V?$unique_ptr@VType@DEX@LIEF@@U?$default_delete@VType@DEX@LIEF@@@std@@@std@@@std@@@std@@@2@@3@XZ
?types@File@DEX@LIEF@@QEBA?AV?$ref_iterator@AEBV?$vector@V?$unique_ptr@VType@DEX@LIEF@@U?$default_delete@VType@DEX@LIEF@@@std@@@std@@V?$allocator@V?$unique_ptr@VType@DEX@LIEF@@U?$default_delete@VType@DEX@LIEF@@@std@@@std@@@2@@std@@PEBVType@DEX@LIEF@@V?$_Vector_const_iterator@V?$_Vector_val@U?$_Simple_types@V?$unique_ptr@VType@DEX@LIEF@@U?$default_delete@VType@DEX@LIEF@@@std@@@std@@@std@@@std@@@2@@3@XZ
?types@Header@DEX@LIEF@@QEBA?AU?$pair@II@std@@XZ
?types@Section@PE@LIEF@@QEBAAEBV?$set@W4PE_SECTION_TYPES@PE@LIEF@@U?$less@W4PE_SECTION_TYPES@PE@LIEF@@@std@@V?$allocator@W4PE_SECTION_TYPES@PE@LIEF@@@5@@std@@XZ
?u16tou8@LIEF@@YA?AV?$basic_string@DU?$char_traits@D@std@@V?$allocator@D@2@@std@@AEBV?$basic_string@_SU?$char_traits@_S@std@@V?$allocator@_S@2@@3@_N@Z
?u8tou16@LIEF@@YA?AV?$basic_string@_SU?$char_traits@_S@std@@V?$allocator@_S@2@@std@@AEBV?$basic_string@DU?$char_traits@D@std@@V?$allocator@D@2@@3@@Z
?uiat@DelayImport@PE@LIEF@@QEAAXI@Z
?uiat@DelayImport@PE@LIEF@@QEBAIXZ
?uid@CorePrPsInfo@ELF@LIEF@@QEAAXI@Z
?uid@CorePrPsInfo@ELF@LIEF@@QEBAIXZ
?umbrella@SubFramework@MachO@LIEF@@QEAAXAEBV?$basic_string@DU?$char_traits@D@std@@V?$allocator@D@2@@std@@@Z
?umbrella@SubFramework@MachO@LIEF@@QEBAAEBV?$basic_string@DU?$char_traits@D@std@@V?$allocator@D@2@@std@@XZ
?unauthenticated_attributes@SignerInfo@PE@LIEF@@QEBA?AV?$ref_iterator@AEBV?$vector@V?$unique_ptr@VAttribute@PE@LIEF@@U?$default_delete@VAttribute@PE@LIEF@@@std@@@std@@V?$allocator@V?$unique_ptr@VAttribute@PE@LIEF@@U?$default_delete@VAttribute@PE@LIEF@@@std@@@std@@@2@@std@@PEBVAttribute@PE@LIEF@@V?$_Vector_const_iterator@V?$_Vector_val@U?$_Simple_types@V?$unique_ptr@VAttribute@PE@LIEF@@U?$default_delete@VAttribute@PE@LIEF@@@std@@@std@@@std@@@std@@@2@@3@XZ
?underlying_array_type@Type@DEX@LIEF@@QEAAAEAV123@XZ
?underlying_array_type@Type@DEX@LIEF@@QEBAAEBV123@XZ
?unexport@Binary@MachO@LIEF@@QEAA_NAEBV?$basic_string@DU?$char_traits@D@std@@V?$allocator@D@2@@std@@@Z
?unexport@Binary@MachO@LIEF@@QEAA_NAEBVSymbol@23@@Z
?unwind_functions@Binary@MachO@LIEF@@QEBA?AV?$vector@VFunction@LIEF@@V?$allocator@VFunction@LIEF@@@std@@@std@@XZ
?update_binding_info@DyldInfo@MachO@LIEF@@AEAAAEAV123@XZ
?update_export_trie@DyldInfo@MachO@LIEF@@AEAAAEAV123@XZ
?update_lazy_bindings@DyldInfo@MachO@LIEF@@AEAAAEAV123@AEBV?$set@PEAVBindingInfo@MachO@LIEF@@V?$function@$$A6A_NPEAVBindingInfo@MachO@LIEF@@0@Z@std@@V?$allocator@PEAVBindingInfo@MachO@LIEF@@@5@@std@@@Z
?update_rebase_info@DyldInfo@MachO@LIEF@@AEAAAEAV123@XZ
?update_standard_bindings@DyldInfo@MachO@LIEF@@AEAAAEAV123@AEBV?$set@PEAVBindingInfo@MachO@LIEF@@V?$function@$$A6A_NPEAVBindingInfo@MachO@LIEF@@0@Z@std@@V?$allocator@PEAVBindingInfo@MachO@LIEF@@@5@@std@@@Z
?update_standard_bindings_v1@DyldInfo@MachO@LIEF@@AEAAAEAV123@AEBV?$set@PEAVBindingInfo@MachO@LIEF@@V?$function@$$A6A_NPEAVBindingInfo@MachO@LIEF@@0@Z@std@@V?$allocator@PEAVBindingInfo@MachO@LIEF@@@5@@std@@@Z
?update_standard_bindings_v2@DyldInfo@MachO@LIEF@@AEAAAEAV123@AEBV?$set@PEAVBindingInfo@MachO@LIEF@@V?$function@$$A6A_NPEAVBindingInfo@MachO@LIEF@@0@Z@std@@V?$allocator@PEAVBindingInfo@MachO@LIEF@@@5@@std@@V?$vector@PEAVRelocationDyld@MachO@LIEF@@V?$allocator@PEAVRelocationDyld@MachO@LIEF@@@std@@@5@@Z
?update_weak_bindings@DyldInfo@MachO@LIEF@@AEAAAEAV123@AEBV?$set@PEAVBindingInfo@MachO@LIEF@@V?$function@$$A6A_NPEAVBindingInfo@MachO@LIEF@@0@Z@std@@V?$allocator@PEAVBindingInfo@MachO@LIEF@@@5@@std@@@Z
?use_gnu_hash@Binary@ELF@LIEF@@QEBA_NXZ
?use_sysv_hash@Binary@ELF@LIEF@@QEBA_NXZ
?used_bytes_in_the_last_page@DosHeader@PE@LIEF@@QEAAXG@Z
?used_bytes_in_the_last_page@DosHeader@PE@LIEF@@QEBAGXZ
?utime@CorePrStatus@ELF@LIEF@@QEAAXUtimeval_t@123@@Z
?utime@CorePrStatus@ELF@LIEF@@QEBA?AUtimeval_t@123@XZ
?uuid@Binary@MachO@LIEF@@QEAAPEAVUUIDCommand@23@XZ
?uuid@Binary@MachO@LIEF@@QEBAPEBVUUIDCommand@23@XZ
?uuid@UUIDCommand@MachO@LIEF@@QEAAXAEBV?$array@E$0BA@@std@@@Z
?uuid@UUIDCommand@MachO@LIEF@@QEBA?AV?$array@E$0BA@@std@@XZ
?va_ranges@Binary@MachO@LIEF@@QEBA?AU?$pair@_K_K@std@@XZ
?va_to_offset@Binary@PE@LIEF@@QEAA_K_K@Z
?valid_from@x509@PE@LIEF@@QEBA?AV?$array@H$05@std@@XZ
?valid_to@x509@PE@LIEF@@QEBA?AV?$array@H$05@std@@XZ
?value@DyldEnvironment@MachO@LIEF@@QEAAXAEBV?$basic_string@DU?$char_traits@D@std@@V?$allocator@D@2@@std@@@Z
?value@DyldEnvironment@MachO@LIEF@@QEBAAEBV?$basic_string@DU?$char_traits@D@std@@V?$allocator@D@2@@std@@XZ
?value@DynamicEntry@ELF@LIEF@@QEAAX_K@Z
?value@DynamicEntry@ELF@LIEF@@QEBA_KXZ
?value@ExportEntry@PE@LIEF@@UEAAX_K@Z
?value@ExportEntry@PE@LIEF@@UEBA_KXZ
?value@Hash@LIEF@@QEBA_KXZ
?value@RelocationObject@MachO@LIEF@@QEAAXH@Z
?value@RelocationObject@MachO@LIEF@@QEBAHXZ
?value@Symbol@LIEF@@UEAAX_K@Z
?value@Symbol@LIEF@@UEBA_KXZ
?value@SymbolVersion@ELF@LIEF@@QEAAXG@Z
?value@SymbolVersion@ELF@LIEF@@QEBAGXZ
?values@CoreAuxv@ELF@LIEF@@QEAAXAEBV?$map@W4AUX_TYPE@ELF@LIEF@@_KU?$less@W4AUX_TYPE@ELF@LIEF@@@std@@V?$allocator@U?$pair@$$CBW4AUX_TYPE@ELF@LIEF@@_K@std@@@5@@std@@@Z
?values@CoreAuxv@ELF@LIEF@@QEBAAEBV?$map@W4AUX_TYPE@ELF@LIEF@@_KU?$less@W4AUX_TYPE@ELF@LIEF@@@std@@V?$allocator@U?$pair@$$CBW4AUX_TYPE@ELF@LIEF@@_K@std@@@5@@std@@XZ
?values@Header@OAT@LIEF@@QEBA?AV?$vector@V?$basic_string@DU?$char_traits@D@std@@V?$allocator@D@2@@std@@V?$allocator@V?$basic_string@DU?$char_traits@D@std@@V?$allocator@D@2@@std@@@2@@std@@XZ
?var_file_info@ResourceVersion@PE@LIEF@@QEAAPEAVResourceVarFileInfo@23@XZ
?var_file_info@ResourceVersion@PE@LIEF@@QEAAXAEBVResourceVarFileInfo@23@@Z
?var_file_info@ResourceVersion@PE@LIEF@@QEBAPEBVResourceVarFileInfo@23@XZ
?verifier_deps_size@Header@VDEX@LIEF@@QEBAIXZ
?verify@x509@PE@LIEF@@QEBA?AW4VERIFICATION_FLAGS@123@AEBV123@@Z
?verify_signature@Binary@PE@LIEF@@QEBA?AW4VERIFICATION_FLAGS@Signature@23@AEBV523@W4VERIFICATION_CHECKS@523@@Z
?verify_signature@Binary@PE@LIEF@@QEBA?AW4VERIFICATION_FLAGS@Signature@23@W4VERIFICATION_CHECKS@523@@Z
?version2int@DylibCommand@MachO@LIEF@@SAIV?$array@G$02@std@@@Z
?version@ART@LIEF@@YAIAEBV?$basic_string@DU?$char_traits@D@std@@V?$allocator@D@2@@std@@@Z
?version@ART@LIEF@@YAIAEBV?$vector@EV?$allocator@E@std@@@std@@@Z
?version@BuildToolVersion@MachO@LIEF@@QEBA?AV?$array@I$02@std@@XZ
?version@DEX@LIEF@@YAIAEBV?$basic_string@DU?$char_traits@D@std@@V?$allocator@D@2@@std@@@Z
?version@DEX@LIEF@@YAIAEBV?$vector@EV?$allocator@E@std@@@std@@@Z
?version@File@DEX@LIEF@@QEBAIXZ
?version@Header@ART@LIEF@@QEBAIXZ
?version@Header@OAT@LIEF@@QEBAIXZ
?version@Header@VDEX@LIEF@@QEBAIXZ
?version@LoadConfiguration@PE@LIEF@@UEBA?AW4WIN_VERSION@23@XZ
?version@LoadConfigurationV0@PE@LIEF@@UEBA?AW4WIN_VERSION@23@XZ
?version@LoadConfigurationV1@PE@LIEF@@UEBA?AW4WIN_VERSION@23@XZ
?version@LoadConfigurationV2@PE@LIEF@@UEBA?AW4WIN_VERSION@23@XZ
?version@LoadConfigurationV3@PE@LIEF@@UEBA?AW4WIN_VERSION@23@XZ
?version@LoadConfigurationV4@PE@LIEF@@UEBA?AW4WIN_VERSION@23@XZ
?version@LoadConfigurationV5@PE@LIEF@@UEBA?AW4WIN_VERSION@23@XZ
?version@LoadConfigurationV6@PE@LIEF@@UEBA?AW4WIN_VERSION@23@XZ
?version@LoadConfigurationV7@PE@LIEF@@UEBA?AW4WIN_VERSION@23@XZ
?version@NoteAbi@ELF@LIEF@@QEBA?AV?$array@I$02@std@@XZ
?version@OAT@LIEF@@YAIAEBV?$basic_string@DU?$char_traits@D@std@@V?$allocator@D@2@@std@@@Z
?version@OAT@LIEF@@YAIAEBV?$vector@EV?$allocator@E@std@@@std@@@Z
?version@OAT@LIEF@@YAIAEBVBinary@ELF@2@@Z
?version@ResourceDialog@PE@LIEF@@QEBAGXZ
?version@ResourcesManager@PE@LIEF@@QEBA?AVResourceVersion@23@XZ
?version@Signature@PE@LIEF@@QEBAIXZ
?version@SignerInfo@PE@LIEF@@QEBAIXZ
?version@SourceVersion@MachO@LIEF@@QEAAXAEBV?$array@I$04@std@@@Z
?version@SourceVersion@MachO@LIEF@@QEBAAEBV?$array@I$04@std@@XZ
?version@SymbolVersionDefinition@ELF@LIEF@@QEAAXG@Z
?version@SymbolVersionDefinition@ELF@LIEF@@QEBAGXZ
?version@SymbolVersionRequirement@ELF@LIEF@@QEAAXG@Z
?version@SymbolVersionRequirement@ELF@LIEF@@QEBAGXZ
?version@VDEX@LIEF@@YAIAEBV?$basic_string@DU?$char_traits@D@std@@V?$allocator@D@2@@std@@@Z
?version@VDEX@LIEF@@YAIAEBV?$vector@EV?$allocator@E@std@@@std@@@Z
?version@VersionMin@MachO@LIEF@@QEAAXAEBV?$array@I$02@std@@@Z
?version@VersionMin@MachO@LIEF@@QEBAAEBV?$array@I$02@std@@XZ
?version@x509@PE@LIEF@@QEBAIXZ
?version_min@Binary@MachO@LIEF@@QEAAPEAVVersionMin@23@XZ
?version_min@Binary@MachO@LIEF@@QEBAPEBVVersionMin@23@XZ
?version_offset@NoteAbi@ELF@LIEF@@2_KB
?version_size@NoteAbi@ELF@LIEF@@2_KB
?version_string@Android@LIEF@@YAPEBDW4ANDROID_VERSIONS@12@@Z
?virtual_address@FilesetCommand@MachO@LIEF@@QEAAX_K@Z
?virtual_address@FilesetCommand@MachO@LIEF@@QEBA_KXZ
?virtual_address@Relocation@PE@LIEF@@QEAAXI@Z
?virtual_address@Relocation@PE@LIEF@@QEBAIXZ
?virtual_address@Section@LIEF@@UEAAX_K@Z
?virtual_address@Section@LIEF@@UEBA_KXZ
?virtual_address@Segment@ELF@LIEF@@QEAAX_K@Z
?virtual_address@Segment@ELF@LIEF@@QEBA_KXZ
?virtual_address@SegmentCommand@MachO@LIEF@@QEAAX_K@Z
?virtual_address@SegmentCommand@MachO@LIEF@@QEBA_KXZ
?virtual_address_to_offset@Binary@ELF@LIEF@@QEBA_K_K@Z
?virtual_address_to_offset@Binary@MachO@LIEF@@QEBA_K_K@Z
?virtual_memory_threshold@LoadConfiguration@PE@LIEF@@QEAAX_K@Z
?virtual_memory_threshold@LoadConfiguration@PE@LIEF@@QEBA_KXZ
?virtual_size@Binary@ELF@LIEF@@QEBA_KXZ
?virtual_size@Binary@MachO@LIEF@@QEBA_KXZ
?virtual_size@Binary@PE@LIEF@@QEBA_KXZ
?virtual_size@Section@PE@LIEF@@QEAAXI@Z
?virtual_size@Section@PE@LIEF@@QEBAIXZ
?virtual_size@Segment@ELF@LIEF@@QEAAX_K@Z
?virtual_size@Segment@ELF@LIEF@@QEBA_KXZ
?virtual_size@SegmentCommand@MachO@LIEF@@QEAAX_K@Z
?virtual_size@SegmentCommand@MachO@LIEF@@QEBA_KXZ
?visibility@Symbol@ELF@LIEF@@QEAAXW4ELF_SYMBOL_VISIBILITY@23@@Z
?visibility@Symbol@ELF@LIEF@@QEBA?AW4ELF_SYMBOL_VISIBILITY@23@XZ
?visit@AbstractHash@LIEF@@UEAAXAEBVBinary@2@@Z
?visit@AbstractHash@LIEF@@UEAAXAEBVFunction@2@@Z
?visit@AbstractHash@LIEF@@UEAAXAEBVHeader@2@@Z
?visit@AbstractHash@LIEF@@UEAAXAEBVRelocation@2@@Z
?visit@AbstractHash@LIEF@@UEAAXAEBVSection@2@@Z
?visit@AbstractHash@LIEF@@UEAAXAEBVSymbol@2@@Z
?visit@Hash@ART@LIEF@@UEAAXAEBVFile@23@@Z
?visit@Hash@ART@LIEF@@UEAAXAEBVHeader@23@@Z
?visit@Hash@DEX@LIEF@@UEAAXAEBVClass@23@@Z
?visit@Hash@DEX@LIEF@@UEAAXAEBVCodeInfo@23@@Z
?visit@Hash@DEX@LIEF@@UEAAXAEBVField@23@@Z
?visit@Hash@DEX@LIEF@@UEAAXAEBVFile@23@@Z
?visit@Hash@DEX@LIEF@@UEAAXAEBVHeader@23@@Z
?visit@Hash@DEX@LIEF@@UEAAXAEBVMapItem@23@@Z
?visit@Hash@DEX@LIEF@@UEAAXAEBVMapList@23@@Z
?visit@Hash@DEX@LIEF@@UEAAXAEBVMethod@23@@Z
?visit@Hash@DEX@LIEF@@UEAAXAEBVPrototype@23@@Z
?visit@Hash@DEX@LIEF@@UEAAXAEBVType@23@@Z
?visit@Hash@ELF@LIEF@@UEAAXAEBVAndroidNote@23@@Z
?visit@Hash@ELF@LIEF@@UEAAXAEBVBinary@23@@Z
?visit@Hash@ELF@LIEF@@UEAAXAEBVCoreAuxv@23@@Z
?visit@Hash@ELF@LIEF@@UEAAXAEBVCoreFile@23@@Z
?visit@Hash@ELF@LIEF@@UEAAXAEBVCorePrPsInfo@23@@Z
?visit@Hash@ELF@LIEF@@UEAAXAEBVCorePrStatus@23@@Z
?visit@Hash@ELF@LIEF@@UEAAXAEBVCoreSigInfo@23@@Z
?visit@Hash@ELF@LIEF@@UEAAXAEBVDynamicEntry@23@@Z
?visit@Hash@ELF@LIEF@@UEAAXAEBVDynamicEntryArray@23@@Z
?visit@Hash@ELF@LIEF@@UEAAXAEBVDynamicEntryFlags@23@@Z
?visit@Hash@ELF@LIEF@@UEAAXAEBVDynamicEntryLibrary@23@@Z
?visit@Hash@ELF@LIEF@@UEAAXAEBVDynamicEntryRpath@23@@Z
?visit@Hash@ELF@LIEF@@UEAAXAEBVDynamicEntryRunPath@23@@Z
?visit@Hash@ELF@LIEF@@UEAAXAEBVDynamicSharedObject@23@@Z
?visit@Hash@ELF@LIEF@@UEAAXAEBVGnuHash@23@@Z
?visit@Hash@ELF@LIEF@@UEAAXAEBVHeader@23@@Z
?visit@Hash@ELF@LIEF@@UEAAXAEBVNote@23@@Z
?visit@Hash@ELF@LIEF@@UEAAXAEBVNoteAbi@23@@Z
?visit@Hash@ELF@LIEF@@UEAAXAEBVNoteDetails@23@@Z
?visit@Hash@ELF@LIEF@@UEAAXAEBVRelocation@23@@Z
?visit@Hash@ELF@LIEF@@UEAAXAEBVSection@23@@Z
?visit@Hash@ELF@LIEF@@UEAAXAEBVSegment@23@@Z
?visit@Hash@ELF@LIEF@@UEAAXAEBVSymbol@23@@Z
?visit@Hash@ELF@LIEF@@UEAAXAEBVSymbolVersion@23@@Z
?visit@Hash@ELF@LIEF@@UEAAXAEBVSymbolVersionAux@23@@Z
?visit@Hash@ELF@LIEF@@UEAAXAEBVSymbolVersionAuxRequirement@23@@Z
?visit@Hash@ELF@LIEF@@UEAAXAEBVSymbolVersionDefinition@23@@Z
?visit@Hash@ELF@LIEF@@UEAAXAEBVSymbolVersionRequirement@23@@Z
?visit@Hash@ELF@LIEF@@UEAAXAEBVSysvHash@23@@Z
?visit@Hash@MachO@LIEF@@UEAAXAEBVBinary@23@@Z
?visit@Hash@MachO@LIEF@@UEAAXAEBVBindingInfo@23@@Z
?visit@Hash@MachO@LIEF@@UEAAXAEBVBuildToolVersion@23@@Z
?visit@Hash@MachO@LIEF@@UEAAXAEBVBuildVersion@23@@Z
?visit@Hash@MachO@LIEF@@UEAAXAEBVCodeSignature@23@@Z
?visit@Hash@MachO@LIEF@@UEAAXAEBVDataCodeEntry@23@@Z
?visit@Hash@MachO@LIEF@@UEAAXAEBVDataInCode@23@@Z
?visit@Hash@MachO@LIEF@@UEAAXAEBVDyldEnvironment@23@@Z
?visit@Hash@MachO@LIEF@@UEAAXAEBVDylibCommand@23@@Z
?visit@Hash@MachO@LIEF@@UEAAXAEBVDylinkerCommand@23@@Z
?visit@Hash@MachO@LIEF@@UEAAXAEBVDynamicSymbolCommand@23@@Z
?visit@Hash@MachO@LIEF@@UEAAXAEBVEncryptionInfo@23@@Z
?visit@Hash@MachO@LIEF@@UEAAXAEBVExportInfo@23@@Z
?visit@Hash@MachO@LIEF@@UEAAXAEBVFilesetCommand@23@@Z
?visit@Hash@MachO@LIEF@@UEAAXAEBVFunctionStarts@23@@Z
?visit@Hash@MachO@LIEF@@UEAAXAEBVHeader@23@@Z
?visit@Hash@MachO@LIEF@@UEAAXAEBVLoadCommand@23@@Z
?visit@Hash@MachO@LIEF@@UEAAXAEBVMainCommand@23@@Z
?visit@Hash@MachO@LIEF@@UEAAXAEBVRPathCommand@23@@Z
?visit@Hash@MachO@LIEF@@UEAAXAEBVRelocation@23@@Z
?visit@Hash@MachO@LIEF@@UEAAXAEBVRelocationDyld@23@@Z
?visit@Hash@MachO@LIEF@@UEAAXAEBVRelocationObject@23@@Z
?visit@Hash@MachO@LIEF@@UEAAXAEBVSection@23@@Z
?visit@Hash@MachO@LIEF@@UEAAXAEBVSegmentCommand@23@@Z
?visit@Hash@MachO@LIEF@@UEAAXAEBVSegmentSplitInfo@23@@Z
?visit@Hash@MachO@LIEF@@UEAAXAEBVSourceVersion@23@@Z
?visit@Hash@MachO@LIEF@@UEAAXAEBVSubFramework@23@@Z
?visit@Hash@MachO@LIEF@@UEAAXAEBVSymbol@23@@Z
?visit@Hash@MachO@LIEF@@UEAAXAEBVSymbolCommand@23@@Z
?visit@Hash@MachO@LIEF@@UEAAXAEBVThreadCommand@23@@Z
?visit@Hash@MachO@LIEF@@UEAAXAEBVUUIDCommand@23@@Z
?visit@Hash@MachO@LIEF@@UEAAXAEBVVersionMin@23@@Z
?visit@Hash@OAT@LIEF@@UEAAXAEBVBinary@23@@Z
?visit@Hash@OAT@LIEF@@UEAAXAEBVClass@23@@Z
?visit@Hash@OAT@LIEF@@UEAAXAEBVDexFile@23@@Z
?visit@Hash@OAT@LIEF@@UEAAXAEBVHeader@23@@Z
?visit@Hash@OAT@LIEF@@UEAAXAEBVMethod@23@@Z
?visit@Hash@PE@LIEF@@UEAAXAEBVAttribute@23@@Z
?visit@Hash@PE@LIEF@@UEAAXAEBVBinary@23@@Z
?visit@Hash@PE@LIEF@@UEAAXAEBVCodeIntegrity@23@@Z
?visit@Hash@PE@LIEF@@UEAAXAEBVCodeView@23@@Z
?visit@Hash@PE@LIEF@@UEAAXAEBVCodeViewPDB@23@@Z
?visit@Hash@PE@LIEF@@UEAAXAEBVContentInfo@23@@Z
?visit@Hash@PE@LIEF@@UEAAXAEBVContentType@23@@Z
?visit@Hash@PE@LIEF@@UEAAXAEBVDataDirectory@23@@Z
?visit@Hash@PE@LIEF@@UEAAXAEBVDebug@23@@Z
?visit@Hash@PE@LIEF@@UEAAXAEBVDelayImport@23@@Z
?visit@Hash@PE@LIEF@@UEAAXAEBVDelayImportEntry@23@@Z
?visit@Hash@PE@LIEF@@UEAAXAEBVDosHeader@23@@Z
?visit@Hash@PE@LIEF@@UEAAXAEBVExport@23@@Z
?visit@Hash@PE@LIEF@@UEAAXAEBVExportEntry@23@@Z
?visit@Hash@PE@LIEF@@UEAAXAEBVGenericType@23@@Z
?visit@Hash@PE@LIEF@@UEAAXAEBVHeader@23@@Z
?visit@Hash@PE@LIEF@@UEAAXAEBVImport@23@@Z
?visit@Hash@PE@LIEF@@UEAAXAEBVImportEntry@23@@Z
?visit@Hash@PE@LIEF@@UEAAXAEBVLangCodeItem@23@@Z
?visit@Hash@PE@LIEF@@UEAAXAEBVLoadConfiguration@23@@Z
?visit@Hash@PE@LIEF@@UEAAXAEBVLoadConfigurationV0@23@@Z
?visit@Hash@PE@LIEF@@UEAAXAEBVLoadConfigurationV1@23@@Z
?visit@Hash@PE@LIEF@@UEAAXAEBVLoadConfigurationV2@23@@Z
?visit@Hash@PE@LIEF@@UEAAXAEBVLoadConfigurationV3@23@@Z
?visit@Hash@PE@LIEF@@UEAAXAEBVLoadConfigurationV4@23@@Z
?visit@Hash@PE@LIEF@@UEAAXAEBVLoadConfigurationV5@23@@Z
?visit@Hash@PE@LIEF@@UEAAXAEBVLoadConfigurationV6@23@@Z
?visit@Hash@PE@LIEF@@UEAAXAEBVLoadConfigurationV7@23@@Z
?visit@Hash@PE@LIEF@@UEAAXAEBVMsSpcNestedSignature@23@@Z
?visit@Hash@PE@LIEF@@UEAAXAEBVMsSpcStatementType@23@@Z
?visit@Hash@PE@LIEF@@UEAAXAEBVOptionalHeader@23@@Z
?visit@Hash@PE@LIEF@@UEAAXAEBVPKCS9AtSequenceNumber@23@@Z
?visit@Hash@PE@LIEF@@UEAAXAEBVPKCS9CounterSignature@23@@Z
?visit@Hash@PE@LIEF@@UEAAXAEBVPKCS9MessageDigest@23@@Z
?visit@Hash@PE@LIEF@@UEAAXAEBVPKCS9SigningTime@23@@Z
?visit@Hash@PE@LIEF@@UEAAXAEBVPogo@23@@Z
?visit@Hash@PE@LIEF@@UEAAXAEBVPogoEntry@23@@Z
?visit@Hash@PE@LIEF@@UEAAXAEBVRelocation@23@@Z
?visit@Hash@PE@LIEF@@UEAAXAEBVRelocationEntry@23@@Z
?visit@Hash@PE@LIEF@@UEAAXAEBVResourceAccelerator@23@@Z
?visit@Hash@PE@LIEF@@UEAAXAEBVResourceData@23@@Z
?visit@Hash@PE@LIEF@@UEAAXAEBVResourceDialog@23@@Z
?visit@Hash@PE@LIEF@@UEAAXAEBVResourceDialogItem@23@@Z
?visit@Hash@PE@LIEF@@UEAAXAEBVResourceDirectory@23@@Z
?visit@Hash@PE@LIEF@@UEAAXAEBVResourceFixedFileInfo@23@@Z
?visit@Hash@PE@LIEF@@UEAAXAEBVResourceIcon@23@@Z
?visit@Hash@PE@LIEF@@UEAAXAEBVResourceNode@23@@Z
?visit@Hash@PE@LIEF@@UEAAXAEBVResourceStringFileInfo@23@@Z
?visit@Hash@PE@LIEF@@UEAAXAEBVResourceStringTable@23@@Z
?visit@Hash@PE@LIEF@@UEAAXAEBVResourceVarFileInfo@23@@Z
?visit@Hash@PE@LIEF@@UEAAXAEBVResourceVersion@23@@Z
?visit@Hash@PE@LIEF@@UEAAXAEBVResourcesManager@23@@Z
?visit@Hash@PE@LIEF@@UEAAXAEBVRichEntry@23@@Z
?visit@Hash@PE@LIEF@@UEAAXAEBVRichHeader@23@@Z
?visit@Hash@PE@LIEF@@UEAAXAEBVSection@23@@Z
?visit@Hash@PE@LIEF@@UEAAXAEBVSignature@23@@Z
?visit@Hash@PE@LIEF@@UEAAXAEBVSignerInfo@23@@Z
?visit@Hash@PE@LIEF@@UEAAXAEBVSpcSpOpusInfo@23@@Z
?visit@Hash@PE@LIEF@@UEAAXAEBVSymbol@23@@Z
?visit@Hash@PE@LIEF@@UEAAXAEBVTLS@23@@Z
?visit@Hash@PE@LIEF@@UEAAXAEBVx509@23@@Z
?visit@Hash@VDEX@LIEF@@UEAAXAEBVFile@23@@Z
?visit@Hash@VDEX@LIEF@@UEAAXAEBVHeader@23@@Z
?visit@Visitor@LIEF@@UEAAXAEBVAndroidNote@ELF@2@@Z
?visit@Visitor@LIEF@@UEAAXAEBVAttribute@PE@2@@Z
?visit@Visitor@LIEF@@UEAAXAEBVBinary@2@@Z
?visit@Visitor@LIEF@@UEAAXAEBVBinary@ELF@2@@Z
?visit@Visitor@LIEF@@UEAAXAEBVBinary@MachO@2@@Z
?visit@Visitor@LIEF@@UEAAXAEBVBinary@OAT@2@@Z
?visit@Visitor@LIEF@@UEAAXAEBVBinary@PE@2@@Z
?visit@Visitor@LIEF@@UEAAXAEBVBindingInfo@MachO@2@@Z
?visit@Visitor@LIEF@@UEAAXAEBVBuildToolVersion@MachO@2@@Z
?visit@Visitor@LIEF@@UEAAXAEBVBuildVersion@MachO@2@@Z
?visit@Visitor@LIEF@@UEAAXAEBVClass@DEX@2@@Z
?visit@Visitor@LIEF@@UEAAXAEBVClass@OAT@2@@Z
?visit@Visitor@LIEF@@UEAAXAEBVCodeInfo@DEX@2@@Z
?visit@Visitor@LIEF@@UEAAXAEBVCodeIntegrity@PE@2@@Z
?visit@Visitor@LIEF@@UEAAXAEBVCodeSignature@MachO@2@@Z
?visit@Visitor@LIEF@@UEAAXAEBVCodeView@PE@2@@Z
?visit@Visitor@LIEF@@UEAAXAEBVCodeViewPDB@PE@2@@Z
?visit@Visitor@LIEF@@UEAAXAEBVContentInfo@PE@2@@Z
?visit@Visitor@LIEF@@UEAAXAEBVContentType@PE@2@@Z
?visit@Visitor@LIEF@@UEAAXAEBVCoreAuxv@ELF@2@@Z
?visit@Visitor@LIEF@@UEAAXAEBVCoreFile@ELF@2@@Z
?visit@Visitor@LIEF@@UEAAXAEBVCorePrPsInfo@ELF@2@@Z
?visit@Visitor@LIEF@@UEAAXAEBVCorePrStatus@ELF@2@@Z
?visit@Visitor@LIEF@@UEAAXAEBVCoreSigInfo@ELF@2@@Z
?visit@Visitor@LIEF@@UEAAXAEBVDataCodeEntry@MachO@2@@Z
?visit@Visitor@LIEF@@UEAAXAEBVDataDirectory@PE@2@@Z
?visit@Visitor@LIEF@@UEAAXAEBVDataInCode@MachO@2@@Z
?visit@Visitor@LIEF@@UEAAXAEBVDebug@PE@2@@Z
?visit@Visitor@LIEF@@UEAAXAEBVDelayImport@PE@2@@Z
?visit@Visitor@LIEF@@UEAAXAEBVDelayImportEntry@PE@2@@Z
?visit@Visitor@LIEF@@UEAAXAEBVDexFile@OAT@2@@Z
?visit@Visitor@LIEF@@UEAAXAEBVDosHeader@PE@2@@Z
?visit@Visitor@LIEF@@UEAAXAEBVDyldEnvironment@MachO@2@@Z
?visit@Visitor@LIEF@@UEAAXAEBVDylibCommand@MachO@2@@Z
?visit@Visitor@LIEF@@UEAAXAEBVDylinkerCommand@MachO@2@@Z
?visit@Visitor@LIEF@@UEAAXAEBVDynamicEntry@ELF@2@@Z
?visit@Visitor@LIEF@@UEAAXAEBVDynamicEntryArray@ELF@2@@Z
?visit@Visitor@LIEF@@UEAAXAEBVDynamicEntryFlags@ELF@2@@Z
?visit@Visitor@LIEF@@UEAAXAEBVDynamicEntryLibrary@ELF@2@@Z
?visit@Visitor@LIEF@@UEAAXAEBVDynamicEntryRpath@ELF@2@@Z
?visit@Visitor@LIEF@@UEAAXAEBVDynamicEntryRunPath@ELF@2@@Z
?visit@Visitor@LIEF@@UEAAXAEBVDynamicSharedObject@ELF@2@@Z
?visit@Visitor@LIEF@@UEAAXAEBVDynamicSymbolCommand@MachO@2@@Z
?visit@Visitor@LIEF@@UEAAXAEBVEncryptionInfo@MachO@2@@Z
?visit@Visitor@LIEF@@UEAAXAEBVExport@PE@2@@Z
?visit@Visitor@LIEF@@UEAAXAEBVExportEntry@PE@2@@Z
?visit@Visitor@LIEF@@UEAAXAEBVExportInfo@MachO@2@@Z
?visit@Visitor@LIEF@@UEAAXAEBVField@DEX@2@@Z
?visit@Visitor@LIEF@@UEAAXAEBVFile@ART@2@@Z
?visit@Visitor@LIEF@@UEAAXAEBVFile@DEX@2@@Z
?visit@Visitor@LIEF@@UEAAXAEBVFile@VDEX@2@@Z
?visit@Visitor@LIEF@@UEAAXAEBVFilesetCommand@MachO@2@@Z
?visit@Visitor@LIEF@@UEAAXAEBVFunction@2@@Z
?visit@Visitor@LIEF@@UEAAXAEBVFunctionStarts@MachO@2@@Z
?visit@Visitor@LIEF@@UEAAXAEBVGenericType@PE@2@@Z
?visit@Visitor@LIEF@@UEAAXAEBVGnuHash@ELF@2@@Z
?visit@Visitor@LIEF@@UEAAXAEBVHeader@2@@Z
?visit@Visitor@LIEF@@UEAAXAEBVHeader@ART@2@@Z
?visit@Visitor@LIEF@@UEAAXAEBVHeader@DEX@2@@Z
?visit@Visitor@LIEF@@UEAAXAEBVHeader@ELF@2@@Z
?visit@Visitor@LIEF@@UEAAXAEBVHeader@MachO@2@@Z
?visit@Visitor@LIEF@@UEAAXAEBVHeader@OAT@2@@Z
?visit@Visitor@LIEF@@UEAAXAEBVHeader@PE@2@@Z
?visit@Visitor@LIEF@@UEAAXAEBVHeader@VDEX@2@@Z
?visit@Visitor@LIEF@@UEAAXAEBVImport@PE@2@@Z
?visit@Visitor@LIEF@@UEAAXAEBVImportEntry@PE@2@@Z
?visit@Visitor@LIEF@@UEAAXAEBVLangCodeItem@PE@2@@Z
?visit@Visitor@LIEF@@UEAAXAEBVLoadCommand@MachO@2@@Z
?visit@Visitor@LIEF@@UEAAXAEBVLoadConfiguration@PE@2@@Z
?visit@Visitor@LIEF@@UEAAXAEBVLoadConfigurationV0@PE@2@@Z
?visit@Visitor@LIEF@@UEAAXAEBVLoadConfigurationV1@PE@2@@Z
?visit@Visitor@LIEF@@UEAAXAEBVLoadConfigurationV2@PE@2@@Z
?visit@Visitor@LIEF@@UEAAXAEBVLoadConfigurationV3@PE@2@@Z
?visit@Visitor@LIEF@@UEAAXAEBVLoadConfigurationV4@PE@2@@Z
?visit@Visitor@LIEF@@UEAAXAEBVLoadConfigurationV5@PE@2@@Z
?visit@Visitor@LIEF@@UEAAXAEBVLoadConfigurationV6@PE@2@@Z
?visit@Visitor@LIEF@@UEAAXAEBVLoadConfigurationV7@PE@2@@Z
?visit@Visitor@LIEF@@UEAAXAEBVMainCommand@MachO@2@@Z
?visit@Visitor@LIEF@@UEAAXAEBVMapItem@DEX@2@@Z
?visit@Visitor@LIEF@@UEAAXAEBVMapList@DEX@2@@Z
?visit@Visitor@LIEF@@UEAAXAEBVMethod@DEX@2@@Z
?visit@Visitor@LIEF@@UEAAXAEBVMethod@OAT@2@@Z
?visit@Visitor@LIEF@@UEAAXAEBVMsSpcNestedSignature@PE@2@@Z
?visit@Visitor@LIEF@@UEAAXAEBVMsSpcStatementType@PE@2@@Z
?visit@Visitor@LIEF@@UEAAXAEBVNote@ELF@2@@Z
?visit@Visitor@LIEF@@UEAAXAEBVNoteAbi@ELF@2@@Z
?visit@Visitor@LIEF@@UEAAXAEBVNoteDetails@ELF@2@@Z
?visit@Visitor@LIEF@@UEAAXAEBVObject@2@@Z
?visit@Visitor@LIEF@@UEAAXAEBVOptionalHeader@PE@2@@Z
?visit@Visitor@LIEF@@UEAAXAEBVPKCS9AtSequenceNumber@PE@2@@Z
?visit@Visitor@LIEF@@UEAAXAEBVPKCS9CounterSignature@PE@2@@Z
?visit@Visitor@LIEF@@UEAAXAEBVPKCS9MessageDigest@PE@2@@Z
?visit@Visitor@LIEF@@UEAAXAEBVPKCS9SigningTime@PE@2@@Z
?visit@Visitor@LIEF@@UEAAXAEBVPogo@PE@2@@Z
?visit@Visitor@LIEF@@UEAAXAEBVPogoEntry@PE@2@@Z
?visit@Visitor@LIEF@@UEAAXAEBVPrototype@DEX@2@@Z
?visit@Visitor@LIEF@@UEAAXAEBVRPathCommand@MachO@2@@Z
?visit@Visitor@LIEF@@UEAAXAEBVRelocation@2@@Z
?visit@Visitor@LIEF@@UEAAXAEBVRelocation@ELF@2@@Z
?visit@Visitor@LIEF@@UEAAXAEBVRelocation@MachO@2@@Z
?visit@Visitor@LIEF@@UEAAXAEBVRelocation@PE@2@@Z
?visit@Visitor@LIEF@@UEAAXAEBVRelocationDyld@MachO@2@@Z
?visit@Visitor@LIEF@@UEAAXAEBVRelocationEntry@PE@2@@Z
?visit@Visitor@LIEF@@UEAAXAEBVRelocationObject@MachO@2@@Z
?visit@Visitor@LIEF@@UEAAXAEBVResourceAccelerator@PE@2@@Z
?visit@Visitor@LIEF@@UEAAXAEBVResourceData@PE@2@@Z
?visit@Visitor@LIEF@@UEAAXAEBVResourceDialog@PE@2@@Z
?visit@Visitor@LIEF@@UEAAXAEBVResourceDialogItem@PE@2@@Z
?visit@Visitor@LIEF@@UEAAXAEBVResourceDirectory@PE@2@@Z
?visit@Visitor@LIEF@@UEAAXAEBVResourceFixedFileInfo@PE@2@@Z
?visit@Visitor@LIEF@@UEAAXAEBVResourceIcon@PE@2@@Z
?visit@Visitor@LIEF@@UEAAXAEBVResourceNode@PE@2@@Z
?visit@Visitor@LIEF@@UEAAXAEBVResourceStringFileInfo@PE@2@@Z
?visit@Visitor@LIEF@@UEAAXAEBVResourceStringTable@PE@2@@Z
?visit@Visitor@LIEF@@UEAAXAEBVResourceVarFileInfo@PE@2@@Z
?visit@Visitor@LIEF@@UEAAXAEBVResourceVersion@PE@2@@Z
?visit@Visitor@LIEF@@UEAAXAEBVResourcesManager@PE@2@@Z
?visit@Visitor@LIEF@@UEAAXAEBVRichEntry@PE@2@@Z
?visit@Visitor@LIEF@@UEAAXAEBVRichHeader@PE@2@@Z
?visit@Visitor@LIEF@@UEAAXAEBVSection@2@@Z
?visit@Visitor@LIEF@@UEAAXAEBVSection@ELF@2@@Z
?visit@Visitor@LIEF@@UEAAXAEBVSection@MachO@2@@Z
?visit@Visitor@LIEF@@UEAAXAEBVSection@PE@2@@Z
?visit@Visitor@LIEF@@UEAAXAEBVSegment@ELF@2@@Z
?visit@Visitor@LIEF@@UEAAXAEBVSegmentCommand@MachO@2@@Z
?visit@Visitor@LIEF@@UEAAXAEBVSegmentSplitInfo@MachO@2@@Z
?visit@Visitor@LIEF@@UEAAXAEBVSignature@PE@2@@Z
?visit@Visitor@LIEF@@UEAAXAEBVSignerInfo@PE@2@@Z
?visit@Visitor@LIEF@@UEAAXAEBVSourceVersion@MachO@2@@Z
?visit@Visitor@LIEF@@UEAAXAEBVSpcSpOpusInfo@PE@2@@Z
?visit@Visitor@LIEF@@UEAAXAEBVSubFramework@MachO@2@@Z
?visit@Visitor@LIEF@@UEAAXAEBVSymbol@2@@Z
?visit@Visitor@LIEF@@UEAAXAEBVSymbol@ELF@2@@Z
?visit@Visitor@LIEF@@UEAAXAEBVSymbol@MachO@2@@Z
?visit@Visitor@LIEF@@UEAAXAEBVSymbol@PE@2@@Z
?visit@Visitor@LIEF@@UEAAXAEBVSymbolCommand@MachO@2@@Z
?visit@Visitor@LIEF@@UEAAXAEBVSymbolVersion@ELF@2@@Z
?visit@Visitor@LIEF@@UEAAXAEBVSymbolVersionAux@ELF@2@@Z
?visit@Visitor@LIEF@@UEAAXAEBVSymbolVersionAuxRequirement@ELF@2@@Z
?visit@Visitor@LIEF@@UEAAXAEBVSymbolVersionDefinition@ELF@2@@Z
?visit@Visitor@LIEF@@UEAAXAEBVSymbolVersionRequirement@ELF@2@@Z
?visit@Visitor@LIEF@@UEAAXAEBVSysvHash@ELF@2@@Z
?visit@Visitor@LIEF@@UEAAXAEBVTLS@PE@2@@Z
?visit@Visitor@LIEF@@UEAAXAEBVThreadCommand@MachO@2@@Z
?visit@Visitor@LIEF@@UEAAXAEBVType@DEX@2@@Z
?visit@Visitor@LIEF@@UEAAXAEBVUUIDCommand@MachO@2@@Z
?visit@Visitor@LIEF@@UEAAXAEBVVersionMin@MachO@2@@Z
?visit@Visitor@LIEF@@UEAAXAEBVx509@PE@2@@Z
?weak_bind@DyldInfo@MachO@LIEF@@QEAAXAEBU?$pair@II@std@@@Z
?weak_bind@DyldInfo@MachO@LIEF@@QEBAAEBU?$pair@II@std@@XZ
?weak_bind_opcodes@DyldInfo@MachO@LIEF@@QEAA?AV?$span@E$0?0@tcb@@XZ
?weak_bind_opcodes@DyldInfo@MachO@LIEF@@QEAAXV?$vector@EV?$allocator@E@std@@@std@@@Z
?weak_bind_opcodes@DyldInfo@MachO@LIEF@@QEBA?AV?$span@$$CBE$0?0@tcb@@XZ
?weak_dylib@DylibCommand@MachO@LIEF@@SA?AV123@AEBV?$basic_string@DU?$char_traits@D@std@@V?$allocator@D@2@@std@@III@Z
?weight@ResourceDialog@PE@LIEF@@QEBAGXZ
?what@exception@LIEF@@UEBAPEBDXZ
?width@ResourceIcon@PE@LIEF@@QEAAXE@Z
?width@ResourceIcon@PE@LIEF@@QEBAEXZ
?win32_version_value@OptionalHeader@PE@LIEF@@QEAAXI@Z
?win32_version_value@OptionalHeader@PE@LIEF@@QEBAIXZ
?wname@Symbol@PE@LIEF@@QEBA?AV?$basic_string@_WU?$char_traits@_W@std@@V?$allocator@_W@2@@std@@XZ
?writable_content@Section@ELF@LIEF@@AEAA?AV?$span@E$0?0@tcb@@XZ
?writable_content@Section@PE@LIEF@@AEAA?AV?$span@E$0?0@tcb@@XZ
?writable_content@Segment@ELF@LIEF@@AEAA?AV?$span@E$0?0@tcb@@XZ
?writable_content@SegmentCommand@MachO@LIEF@@AEAA?AV?$span@E$0?0@tcb@@XZ
?write@Binary@ELF@LIEF@@UEAAXAEBV?$basic_string@DU?$char_traits@D@std@@V?$allocator@D@2@@std@@@Z
?write@Binary@MachO@LIEF@@UEAAXAEBV?$basic_string@DU?$char_traits@D@std@@V?$allocator@D@2@@std@@@Z
?write@Binary@PE@LIEF@@UEAAXAEBV?$basic_string@DU?$char_traits@D@std@@V?$allocator@D@2@@std@@@Z
?write@Builder@ELF@LIEF@@QEBAXAEBV?$basic_string@DU?$char_traits@D@std@@V?$allocator@D@2@@std@@@Z
?write@Builder@MachO@LIEF@@QEBAXAEBV?$basic_string@DU?$char_traits@D@std@@V?$allocator@D@2@@std@@@Z
?write@Builder@MachO@LIEF@@SAXAEAVBinary@23@AEBV?$basic_string@DU?$char_traits@D@std@@V?$allocator@D@2@@std@@@Z
?write@Builder@MachO@LIEF@@SAXAEAVFatBinary@23@AEBV?$basic_string@DU?$char_traits@D@std@@V?$allocator@D@2@@std@@@Z
?write@Builder@PE@LIEF@@QEBAXAEBV?$basic_string@DU?$char_traits@D@std@@V?$allocator@D@2@@std@@@Z
?write@FatBinary@MachO@LIEF@@QEAAXAEBV?$basic_string@DU?$char_traits@D@std@@V?$allocator@D@2@@std@@@Z
?x@ResourceDialog@PE@LIEF@@QEBAFXZ
?x@ResourceDialogItem@PE@LIEF@@QEBAFXZ
?xref@Binary@LIEF@@QEBA?AV?$vector@_KV?$allocator@_K@std@@@std@@_K@Z
?y@ResourceDialog@PE@LIEF@@QEBAFXZ
?y@ResourceDialogItem@PE@LIEF@@QEBAFXZ
ARCH_to_string
CPU_TYPES_to_string
DYNAMIC_FLAGS_1_to_string
DYNAMIC_FLAGS_to_string
DYNAMIC_TAGS_to_string
ELF_CLASS_to_string
ELF_DATA_to_string
ELF_SECTION_FLAGS_to_string
ELF_SECTION_TYPES_to_string
ELF_SYMBOL_TYPES_to_string
E_TYPE_to_string
FILE_TYPES_to_string
HEADER_FLAGS_to_string
LOAD_COMMAND_TYPES_to_string
MACHINE_TYPES_to_string
MACHO_SECTION_TYPES_to_string
MACHO_SYMBOL_TYPES_to_string
MACHO_TYPES_to_string
N_LIST_TYPES_to_string
OS_ABI_to_string
PE_TYPES_to_string
SEGMENT_TYPES_to_string
SUBSYSTEM_to_string
SYMBOL_BINDINGS_to_string
SYMBOL_DESCRIPTIONS_to_string
VERSION_to_string
elf_binary_destroy
elf_binary_save_header
elf_parse
is_elf
lief_logging_disable
lief_logging_enable
lief_logging_set_level
macho_binaries_destroy
macho_parse
pe_binary_destroy
pe_parse